----------------
IN: 
----------------
0x00000000: ----------------
IN: 
----------------
0x00000300: IN: 
 d2801b050x00000300:  580000c0 d2801b05  movz     x5, #0xd8

  movz     x5, #0xd8
----------------
IN: 
IN: 
0x00000304: 0x00000300:   ldr      x0, #0x18
 d2801b05 d53800a6
  mrs      x6, mpidr_el1
----------------
  movz     x5, #0xd8


----------------
----------------
IN: 
IN: 
0x00000304: 0x00000004:  d53800a6 aa1f03e1IN: 
  mov      x1, xzr

  mrs      x6, mpidr_el1


0x00000304: ----------------
IN: 
----------------
0x00000308:  d53800a6 924004c6----------------
IN: 
IN: 
0x00000008: 0x00000308:  aa1f03e2 924004c6  mov      x2, xzr

  mrs      x6, mpidr_el1

  and      x6, x6, #3
  and      x6, x6, #3

----------------
----------------
IN: 
IN: 
0x0000000c: 0x0000030c:  aa1f03e3 d503205f
  wfe      
  mov      x3, xzr

----------------
----------------
IN: 
IN: 

0x00000308: ----------------
 924004c6IN: 
0x00000010: 0x00000310: ----------------
 f86678a4  and      x6, x6, #3

 58000084----------------
IN: 
IN: 
  ldr      x4, [x5, x6, lsl #3]

  ldr      x4, #0x20
----------------

IN: 
----------------
0x00000314: 0x0000030c:  b4ffffc4 d503205f  cbz      x4, #0x30c

IN: 
0x00000310: 0x00000014:   wfe      
 d61f0080
  br       x4

 f86678a4----------------
IN: 
  ldr      x4, [x5, x6, lsl #3]

0x00080000:  d53800a0  mrs      x0, mpidr_el1

----------------
IN: 
0x00080004:  92400400  and      x0, x0, #3

----------------
IN: 
0x00080008:  b5088840  cbnz     x0, #0x91110

----------------
IN: 
0x0008000c:  580002e0  ldr      x0, #0x80068

----------------
IN: 
0x00080010:  9100001f  mov      sp, x0

----------------
IN: 
0x00080014:  d53800a3  mrs      x3, mpidr_el1

----------------
IN: 
0x00080018:  92400463  and      x3, x3, #3

----------------
IN: 
0x0008001c:  b5000123  cbnz     x3, #0x80040

----------------
IN: 
0x00080020:  58000280  ldr      x0, #0x80070

----------------
IN: 
0x00080024:  580002a2  ldr      x2, #0x80078

----------------
IN: 
0x00080028:  cb000042  sub      x2, x2, x0

----------------
IN: 
0x0008002c:  d344fc42  lsr      x2, x2, #4

----------------
IN: 
0x00080030:  b4000082  cbz      x2, #0x80040

----------------
IN: 
0x00080034:  a8817c1f  stp      xzr, xzr, [x0], #0x10

----------------
IN: 
0x00080038:  d1000442  sub      x2, x2, #1

----------------
IN: 
0x0008003c:  b5ffffc2  cbnz     x2, #0x80034

----------------
IN: 
0x00080040:  1008fe00  adr      x0, #0x92000

----------------
IN: 
0x00080044:  d51cc000  msr      vbar_el2, x0

----------------
IN: 
0x00080048:  d53c1100  mrs      x0, hcr_el2

----------------
IN: 
0x0008004c:  b27d0800  orr      x0, x0, #0x38

----------------
IN: 
0x00080050:  d51c1100  msr      hcr_el2, x0

----------------
IN: 
0x00080054:  d53800a0  mrs      x0, mpidr_el1

----------------
IN: 
0x00080058:  92400400  and      x0, x0, #3

----------------
IN: 
0x0008005c:  140041e9  b        #0x90800

----------------
IN: 
0x00090800:  d10083ff  sub      sp, sp, #0x20

----------------
IN: 
0x00090804:  a9017bf3  stp      x19, x30, [sp, #0x10]

----------------
IN: 
0x00090808:  2a0003f3  mov      w19, w0

----------------
IN: 
0x0009080c:  94000129  bl       #0x90cb0

----------------
IN: 
0x00090cb0:  d10743ff  sub      sp, sp, #0x1d0

----------------
IN: 
0x00090cb4:  f900dbfc  str      x28, [sp, #0x1b0]

----------------
IN: 
0x00090cb8:  a91c7bf3  stp      x19, x30, [sp, #0x1c0]

----------------
IN: 
0x00090cbc:  350005c0  cbnz     w0, #0x90d74

----------------
IN: 
0x00090cc0:  d0000028  adrp     x8, #0x96000

----------------
IN: 
0x00090cc4:  5280e22b  movz     w11, #0x711

----------------
IN: 
0x00090cc8:  91000108  add      x8, x8, #0

----------------
IN: 
0x00090ccc:  91400509  add      x9, x8, #1, lsl #12

----------------
IN: 
0x00090cd0:  9140090a  add      x10, x8, #2, lsl #12

----------------
IN: 
0x00090cd4:  b2410929  orr      x9, x9, #0x8000000000000003

----------------
IN: 
0x00090cd8:  b241094a  orr      x10, x10, #0x8000000000000003

----------------
IN: 
0x00090cdc:  4e080d60  dup      v0.2d, x11

----------------
IN: 
0x00090ce0:  5280008b  movz     w11, #0x4

----------------
IN: 
0x00090ce4:  9e670124  fmov     d4, x9

----------------
IN: 
0x00090ce8:  5280e229  movz     w9, #0x711

----------------
IN: 
0x00090cec:  72a00809  movk     w9, #0x40, lsl #16

----------------
IN: 
0x00090cf0:  4e080d62  dup      v2.2d, x11

----------------
IN: 
0x00090cf4:  4e080d21  dup      v1.2d, x9

----------------
IN: 
0x00090cf8:  90000029  adrp     x9, #0x94000

----------------
IN: 
0x00090cfc:  4e181d44  ins      v4.d[1], x10

----------------
IN: 
0x00090d00:  3dc11523  ldr      q3, [x9, #0x450]

----------------
IN: 
0x00090d04:  aa1f03e9  mov      x9, xzr

----------------
IN: 
0x00090d08:  3d800104  str      q4, [x8]

----------------
IN: 
0x00090d0c:  4f555464  shl      v4.2d, v3.2d, #0x15

----------------
IN: 
0x00090d10:  8b09010a  add      x10, x8, x9

----------------
IN: 
0x00090d14:  4ee28463  add      v3.2d, v3.2d, v2.2d

----------------
IN: 
0x00090d18:  91008129  add      x9, x9, #0x20

----------------
IN: 
0x00090d1c:  f13f013f  cmp      x9, #0xfc0

----------------
IN: 
0x00090d20:  4ea01c85  orr      v5.16b, v4.16b, v0.16b

----------------
IN: 
0x00090d24:  4ee18484  add      v4.2d, v4.2d, v1.2d

----------------
IN: 
0x00090d28:  3d840145  str      q5, [x10, #0x1000]

----------------
IN: 
0x00090d2c:  3d840544  str      q4, [x10, #0x1010]

----------------
IN: 
0x00090d30:  54fffee1  b.ne     #0x90d0c

----------------
IN: 
0x00090d34:  90000028  adrp     x8, #0x94000

----------------
IN: 
0x00090d38:  90000029  adrp     x9, #0x94000

----------------
IN: 
0x00090d3c:  9000002a  adrp     x10, #0x94000

----------------
IN: 
0x00090d40:  3dc11900  ldr      q0, [x8, #0x460]

----------------
IN: 
0x00090d44:  90000028  adrp     x8, #0x94000

----------------
IN: 
0x00090d48:  3dc11d21  ldr      q1, [x9, #0x470]

----------------
IN: 
0x00090d4c:  f0000029  adrp     x9, #0x97000

----------------
IN: 
0x00090d50:  3dc12142  ldr      q2, [x10, #0x480]

----------------
IN: 
0x00090d54:  913f0129  add      x9, x9, #0xfc0

----------------
IN: 
0x00090d58:  3dc12503  ldr      q3, [x8, #0x490]

----------------
IN: 
0x00090d5c:  52808028  movz     w8, #0x401

----------------
IN: 
0x00090d60:  72a80008  movk     w8, #0x4000, lsl #16

----------------
IN: 
0x00090d64:  ad000520  stp      q0, q1, [x9]

----------------
IN: 
0x00090d68:  ad010d22  stp      q2, q3, [x9, #0x20]

----------------
IN: 
0x00090d6c:  f9002128  str      x8, [x9, #0x40]

----------------
IN: 
0x00090d70:  d5033a9f  dsb      ishst

----------------
IN: 
0x00090d74:  90000028  adrp     x8, #0x94000

----------------
IN: 
0x00090d78:  9000002b  adrp     x11, #0x94000

----------------
IN: 
0x00090d7c:  91128108  add      x8, x8, #0x4a0

----------------
IN: 
0x00090d80:  9112e16b  add      x11, x11, #0x4b8

----------------
IN: 
0x00090d84:  9100c3e0  add      x0, sp, #0x30

----------------
IN: 
0x00090d88:  910123e1  add      x1, sp, #0x48

----------------
IN: 
0x00090d8c:  a9402909  ldp      x9, x10, [x8]

----------------
IN: 
0x00090d90:  f9400908  ldr      x8, [x8, #0x10]

----------------
IN: 
0x00090d94:  a9032be9  stp      x9, x10, [sp, #0x30]

----------------
IN: 
0x00090d98:  a9403169  ldp      x9, x12, [x11]

----------------
IN: 
0x00090d9c:  f940096b  ldr      x11, [x11, #0x10]

----------------
IN: 
0x00090da0:  a90427e8  stp      x8, x9, [sp, #0x40]

----------------
IN: 
0x00090da4:  910063e8  add      x8, sp, #0x18

----------------
IN: 
0x00090da8:  a9052fec  stp      x12, x11, [sp, #0x50]

----------------
IN: 
0x00090dac:  94000b7b  bl       #0x93b98

----------------
IN: 
0x00093b98:  f9400009  ldr      x9, [x0]

----------------
IN: 
0x00093b9c:  f940002a  ldr      x10, [x1]

----------------
IN: 
0x00093ba0:  f940080b  ldr      x11, [x0, #0x10]

----------------
IN: 
0x00093ba4:  f940082c  ldr      x12, [x1, #0x10]

----------------
IN: 
0x00093ba8:  aa090149  orr      x9, x10, x9

----------------
IN: 
0x00093bac:  aa0b018a  orr      x10, x12, x11

----------------
IN: 
0x00093bb0:  a9007d09  stp      x9, xzr, [x8]

----------------
IN: 
0x00093bb4:  f900090a  str      x10, [x8, #0x10]

----------------
IN: 
0x00093bb8:  d65f03c0  ret      

----------------
IN: 
0x00090db0:  90000028  adrp     x8, #0x94000

----------------
IN: 
0x00090db4:  910063e0  add      x0, sp, #0x18

----------------
IN: 
0x00090db8:  91134108  add      x8, x8, #0x4d0

----------------
IN: 
0x00090dbc:  910183e1  add      x1, sp, #0x60

----------------
IN: 
0x00090dc0:  f940090a  ldr      x10, [x8, #0x10]

----------------
IN: 
0x00090dc4:  a9402109  ldp      x9, x8, [x8]

----------------
IN: 
0x00090dc8:  f9003bea  str      x10, [sp, #0x70]

----------------
IN: 
0x00090dcc:  a90623e9  stp      x9, x8, [sp, #0x60]

----------------
IN: 
0x00090dd0:  910003e8  mov      x8, sp

----------------
IN: 
0x00090dd4:  94000b71  bl       #0x93b98

----------------
IN: 
0x00090dd8:  90000028  adrp     x8, #0x94000

----------------
IN: 
0x00090ddc:  910003e0  mov      x0, sp

----------------
IN: 
0x00090de0:  9113a108  add      x8, x8, #0x4e8

----------------
IN: 
0x00090de4:  9101e3e1  add      x1, sp, #0x78

----------------
IN: 
0x00090de8:  f940090a  ldr      x10, [x8, #0x10]

----------------
IN: 
0x00090dec:  a9402109  ldp      x9, x8, [x8]

----------------
IN: 
0x00090df0:  f90047ea  str      x10, [sp, #0x88]

----------------
IN: 
0x00090df4:  a907a3e9  stp      x9, x8, [sp, #0x78]

----------------
IN: 
0x00090df8:  910063e8  add      x8, sp, #0x18

----------------
IN: 
0x00090dfc:  94000b67  bl       #0x93b98

----------------
IN: 
0x00090e00:  90000028  adrp     x8, #0x94000

----------------
IN: 
0x00090e04:  910063e0  add      x0, sp, #0x18

----------------
IN: 
0x00090e08:  91140108  add      x8, x8, #0x500

----------------
IN: 
0x00090e0c:  910243e1  add      x1, sp, #0x90

----------------
IN: 
0x00090e10:  f940090a  ldr      x10, [x8, #0x10]

----------------
IN: 
0x00090e14:  a9402109  ldp      x9, x8, [x8]

----------------
IN: 
0x00090e18:  f90053ea  str      x10, [sp, #0xa0]

----------------
IN: 
0x00090e1c:  a90923e9  stp      x9, x8, [sp, #0x90]

----------------
IN: 
0x00090e20:  910003e8  mov      x8, sp

----------------
IN: 
0x00090e24:  94000b5d  bl       #0x93b98

----------------
IN: 
0x00090e28:  910003e0  mov      x0, sp

----------------
IN: 
0x00090e2c:  d53ca213  mrs      x19, mair_el2

----------------
IN: 
0x00090e30:  94000b58  bl       #0x93b90

----------------
IN: 
0x00093b90:  f9400000  ldr      x0, [x0]

----------------
IN: 
0x00093b94:  d65f03c0  ret      

----------------
IN: 
0x00090e34:  8a200273  bic      x19, x19, x0

----------------
IN: 
0x00090e38:  910003e0  mov      x0, sp

----------------
IN: 
0x00090e3c:  94000b51  bl       #0x93b80

----------------
IN: 
0x00093b80:  a940a408  ldp      x8, x9, [x0, #8]

----------------
IN: 
0x00093b84:  9ac82520  lsr      x0, x9, x8

----------------
IN: 
0x00093b88:  d65f03c0  ret      

----------------
IN: 
0x00090e40:  aa000268  orr      x8, x19, x0

----------------
IN: 
0x00090e44:  d0000020  adrp     x0, #0x96000

----------------
IN: 
0x00090e48:  d51ca208  msr      mair_el2, x8

----------------
IN: 
0x00090e4c:  91000000  add      x0, x0, #0

----------------
IN: 
0x00090e50:  910063e8  add      x8, sp, #0x18

----------------
IN: 
0x00090e54:  94000b5b  bl       #0x93bc0

----------------
IN: 
0x00093bc0:  b0000009  adrp     x9, #0x94000

----------------
IN: 
0x00093bc4:  3dc21d20  ldr      q0, [x9, #0x870]

----------------
IN: 
0x00093bc8:  3c9f0fe0  str      q0, [sp, #0xfffffffffffffff0]!

----------------
IN: 
0x00093bcc:  f94007e9  ldr      x9, [sp, #8]

----------------
IN: 
0x00093bd0:  f9000509  str      x9, [x8, #8]

----------------
IN: 
0x00093bd4:  f84107e9  ldr      x9, [sp], #0x10

----------------
IN: 
0x00093bd8:  f9000900  str      x0, [x8, #0x10]

----------------
IN: 
0x00093bdc:  f9000109  str      x9, [x8]

----------------
IN: 
0x00093be0:  d65f03c0  ret      

----------------
IN: 
0x00090e58:  910063e0  add      x0, sp, #0x18

----------------
IN: 
0x00090e5c:  d53c2013  mrs      x19, ttbr0_el2

----------------
IN: 
0x00090e60:  94000b4c  bl       #0x93b90

----------------
IN: 
0x00090e64:  8a200273  bic      x19, x19, x0

----------------
IN: 
0x00090e68:  910063e0  add      x0, sp, #0x18

----------------
IN: 
0x00090e6c:  94000b45  bl       #0x93b80

----------------
IN: 
0x00090e70:  aa000268  orr      x8, x19, x0

----------------
IN: 
0x00090e74:  d51c2008  msr      ttbr0_el2, x8

----------------
IN: 
0x00090e78:  52800320  movz     w0, #0x19

----------------
IN: 
0x00090e7c:  910063e8  add      x8, sp, #0x18

----------------
IN: 
0x00090e80:  94000b5a  bl       #0x93be8

----------------
IN: 
0x00093be8:  b0000009  adrp     x9, #0x94000

----------------
IN: 
0x00093bec:  f9444129  ldr      x9, [x9, #0x880]

----------------
IN: 
0x00093bf0:  d360fd2a  lsr      x10, x9, #0x20

----------------
IN: 
0x00093bf4:  b9000109  str      w9, [x8]

----------------
IN: 
0x00093bf8:  2900810a  stp      w10, w0, [x8, #4]

----------------
IN: 
0x00093bfc:  d65f03c0  ret      

----------------
IN: 
0x00090e84:  90000028  adrp     x8, #0x94000

----------------
IN: 
0x00090e88:  910063e0  add      x0, sp, #0x18

----------------
IN: 
0x00090e8c:  91146108  add      x8, x8, #0x518

----------------
IN: 
0x00090e90:  9102a3e1  add      x1, sp, #0xa8

----------------
IN: 
0x00090e94:  b940090a  ldr      w10, [x8, #8]

----------------
IN: 
0x00090e98:  29402109  ldp      w9, w8, [x8]

----------------
IN: 
0x00090e9c:  b900b3ea  str      w10, [sp, #0xb0]

----------------
IN: 
0x00090ea0:  291523e9  stp      w9, w8, [sp, #0xa8]

----------------
IN: 
0x00090ea4:  910003e8  mov      x8, sp

----------------
IN: 
0x00090ea8:  94000b2c  bl       #0x93b58

----------------
IN: 
0x00093b58:  b9400009  ldr      w9, [x0]

----------------
IN: 
0x00093b5c:  b940002a  ldr      w10, [x1]

----------------
IN: 
0x00093b60:  b940080b  ldr      w11, [x0, #8]

----------------
IN: 
0x00093b64:  b940082c  ldr      w12, [x1, #8]

----------------
IN: 
0x00093b68:  2a090149  orr      w9, w10, w9

----------------
IN: 
0x00093b6c:  2a0b018a  orr      w10, w12, w11

----------------
IN: 
0x00093b70:  29007d09  stp      w9, wzr, [x8]

----------------
IN: 
0x00093b74:  b900090a  str      w10, [x8, #8]

----------------
IN: 
0x00093b78:  d65f03c0  ret      

----------------
IN: 
0x00090eac:  90000028  adrp     x8, #0x94000

----------------
IN: 
0x00090eb0:  910003e0  mov      x0, sp

----------------
IN: 
0x00090eb4:  91149108  add      x8, x8, #0x524

----------------
IN: 
0x00090eb8:  9102e3e1  add      x1, sp, #0xb8

----------------
IN: 
0x00090ebc:  b940090a  ldr      w10, [x8, #8]

----------------
IN: 
0x00090ec0:  29402109  ldp      w9, w8, [x8]

----------------
IN: 
0x00090ec4:  b900c3ea  str      w10, [sp, #0xc0]

----------------
IN: 
0x00090ec8:  291723e9  stp      w9, w8, [sp, #0xb8]

----------------
IN: 
0x00090ecc:  910063e8  add      x8, sp, #0x18

----------------
IN: 
0x00090ed0:  94000b22  bl       #0x93b58

----------------
IN: 
0x00090ed4:  90000028  adrp     x8, #0x94000

----------------
IN: 
0x00090ed8:  910063e0  add      x0, sp, #0x18

----------------
IN: 
0x00090edc:  9114c108  add      x8, x8, #0x530

----------------
IN: 
0x00090ee0:  910323e1  add      x1, sp, #0xc8

----------------
IN: 
0x00090ee4:  b940090a  ldr      w10, [x8, #8]

----------------
IN: 
0x00090ee8:  29402109  ldp      w9, w8, [x8]

----------------
IN: 
0x00090eec:  b900d3ea  str      w10, [sp, #0xd0]

----------------
IN: 
0x00090ef0:  291923e9  stp      w9, w8, [sp, #0xc8]

----------------
IN: 
0x00090ef4:  910003e8  mov      x8, sp

----------------
IN: 
0x00090ef8:  94000b18  bl       #0x93b58

----------------
IN: 
0x00090efc:  90000028  adrp     x8, #0x94000

----------------
IN: 
0x00090f00:  910003e0  mov      x0, sp

----------------
IN: 
0x00090f04:  9114f108  add      x8, x8, #0x53c

----------------
IN: 
0x00090f08:  910363e1  add      x1, sp, #0xd8

----------------
IN: 
0x00090f0c:  b940090a  ldr      w10, [x8, #8]

----------------
IN: 
0x00090f10:  29402109  ldp      w9, w8, [x8]

----------------
IN: 
0x00090f14:  b900e3ea  str      w10, [sp, #0xe0]

----------------
IN: 
0x00090f18:  291b23e9  stp      w9, w8, [sp, #0xd8]

----------------
IN: 
0x00090f1c:  910063e8  add      x8, sp, #0x18

----------------
IN: 
0x00090f20:  94000b0e  bl       #0x93b58

----------------
IN: 
0x00090f24:  90000028  adrp     x8, #0x94000

----------------
IN: 
0x00090f28:  910063e0  add      x0, sp, #0x18

----------------
IN: 
0x00090f2c:  91152108  add      x8, x8, #0x548

----------------
IN: 
0x00090f30:  9103a3e1  add      x1, sp, #0xe8

----------------
IN: 
0x00090f34:  b940090a  ldr      w10, [x8, #8]

----------------
IN: 
0x00090f38:  29402109  ldp      w9, w8, [x8]

----------------
IN: 
0x00090f3c:  b900f3ea  str      w10, [sp, #0xf0]

----------------
IN: 
0x00090f40:  291d23e9  stp      w9, w8, [sp, #0xe8]

----------------
IN: 
0x00090f44:  910003e8  mov      x8, sp

----------------
IN: 
0x00090f48:  94000b04  bl       #0x93b58

----------------
IN: 
0x00090f4c:  90000028  adrp     x8, #0x94000

----------------
IN: 
0x00090f50:  910003e0  mov      x0, sp

----------------
IN: 
0x00090f54:  91155108  add      x8, x8, #0x554

----------------
IN: 
0x00090f58:  9103e3e1  add      x1, sp, #0xf8

----------------
IN: 
0x00090f5c:  b940090a  ldr      w10, [x8, #8]

----------------
IN: 
0x00090f60:  29402109  ldp      w9, w8, [x8]

----------------
IN: 
0x00090f64:  b90103ea  str      w10, [sp, #0x100]

----------------
IN: 
0x00090f68:  291f23e9  stp      w9, w8, [sp, #0xf8]

----------------
IN: 
0x00090f6c:  910063e8  add      x8, sp, #0x18

----------------
IN: 
0x00090f70:  94000afa  bl       #0x93b58

----------------
IN: 
0x00090f74:  910063e0  add      x0, sp, #0x18

----------------
IN: 
0x00090f78:  d53c2053  mrs      x19, tcr_el2

----------------
IN: 
0x00090f7c:  94000af5  bl       #0x93b50

----------------
IN: 
0x00093b50:  b9400000  ldr      w0, [x0]

----------------
IN: 
0x00093b54:  d65f03c0  ret      

----------------
IN: 
0x00090f80:  0a200273  bic      w19, w19, w0

----------------
IN: 
0x00090f84:  910063e0  add      x0, sp, #0x18

----------------
IN: 
0x00090f88:  94000aee  bl       #0x93b40

----------------
IN: 
0x00093b40:  2940a408  ldp      w8, w9, [x0, #4]

----------------
IN: 
0x00093b44:  1ac82520  lsr      w0, w9, w8

----------------
IN: 
0x00093b48:  d65f03c0  ret      

----------------
IN: 
0x00090f8c:  90000028  adrp     x8, #0x94000

----------------
IN: 
0x00090f90:  2a00026a  orr      w10, w19, w0

----------------
IN: 
0x00090f94:  91158108  add      x8, x8, #0x560

----------------
IN: 
0x00090f98:  910423e0  add      x0, sp, #0x108

----------------
IN: 
0x00090f9c:  910483e1  add      x1, sp, #0x120

----------------
IN: 
0x00090fa0:  a9402d09  ldp      x9, x11, [x8]

----------------
IN: 
0x00090fa4:  f9400908  ldr      x8, [x8, #0x10]

----------------
IN: 
0x00090fa8:  d51c204a  msr      tcr_el2, x10

----------------
IN: 
0x00090fac:  a910afe9  stp      x9, x11, [sp, #0x108]

----------------
IN: 
0x00090fb0:  90000029  adrp     x9, #0x94000

----------------
IN: 
0x00090fb4:  9115e129  add      x9, x9, #0x578

----------------
IN: 
0x00090fb8:  a940312a  ldp      x10, x12, [x9]

----------------
IN: 
0x00090fbc:  f9400929  ldr      x9, [x9, #0x10]

----------------
IN: 
0x00090fc0:  a911abe8  stp      x8, x10, [sp, #0x118]

----------------
IN: 
0x00090fc4:  910063e8  add      x8, sp, #0x18

----------------
IN: 
0x00090fc8:  a912a7ec  stp      x12, x9, [sp, #0x128]

----------------
IN: 
0x00090fcc:  94000af3  bl       #0x93b98

----------------
IN: 
0x00093b98:  f9400009  ldr      x9, [x0]

----------------
IN: 
0x00093b9c:  f940002a  ldr      x10, [x1]

----------------
IN: 
0x00093ba0:  f940080b  ldr      x11, [x0, #0x10]

----------------
IN: 
0x00093ba4:  f940082c  ldr      x12, [x1, #0x10]

----------------
IN: 
0x00093ba8:  aa090149  orr      x9, x10, x9

----------------
IN: 
0x00093bac:  aa0b018a  orr      x10, x12, x11

----------------
IN: 
0x00093bb0:  a9007d09  stp      x9, xzr, [x8]

----------------
IN: 
0x00093bb4:  f900090a  str      x10, [x8, #0x10]

----------------
IN: 
0x00093bb8:  d65f03c0  ret      

----------------
IN: 
0x00090fd0:  910063e0  add      x0, sp, #0x18

----------------
IN: 
0x00090fd4:  d53c1113  mrs      x19, hcr_el2

----------------
IN: 
0x00090fd8:  94000aee  bl       #0x93b90

----------------
IN: 
0x00093b90:  f9400000  ldr      x0, [x0]

----------------
IN: 
0x00093b94:  d65f03c0  ret      

----------------
IN: 
0x00090fdc:  8a200273  bic      x19, x19, x0

----------------
IN: 
0x00090fe0:  910063e0  add      x0, sp, #0x18

----------------
IN: 
0x00090fe4:  94000ae7  bl       #0x93b80

----------------
IN: 
0x00093b80:  a940a408  ldp      x8, x9, [x0, #8]

----------------
IN: 
0x00093b84:  9ac82520  lsr      x0, x9, x8

----------------
IN: 
0x00093b88:  d65f03c0  ret      

----------------
IN: 
0x00090fe8:  90000028  adrp     x8, #0x94000

----------------
IN: 
0x00090fec:  aa00026a  orr      x10, x19, x0

----------------
IN: 
0x00090ff0:  91164108  add      x8, x8, #0x590

----------------
IN: 
0x00090ff4:  9104e3e0  add      x0, sp, #0x138

----------------
IN: 
0x00090ff8:  910543e1  add      x1, sp, #0x150

----------------
IN: 
0x00090ffc:  a9402d09  ldp      x9, x11, [x8]

----------------
IN: 
0x00091000:  f9400908  ldr      x8, [x8, #0x10]

----------------
IN: 
0x00091004:  d51c110a  msr      hcr_el2, x10

----------------
IN: 
0x00091008:  a913afe9  stp      x9, x11, [sp, #0x138]

----------------
IN: 
0x0009100c:  f0000009  adrp     x9, #0x94000

----------------
IN: 
0x00091010:  9116a129  add      x9, x9, #0x5a8

----------------
IN: 
0x00091014:  a940312a  ldp      x10, x12, [x9]

----------------
IN: 
0x00091018:  f9400929  ldr      x9, [x9, #0x10]

----------------
IN: 
0x0009101c:  a914abe8  stp      x8, x10, [sp, #0x148]

----------------
IN: 
0x00091020:  910063e8  add      x8, sp, #0x18

----------------
IN: 
0x00091024:  a915a7ec  stp      x12, x9, [sp, #0x158]

----------------
IN: 
0x00091028:  94000adc  bl       #0x93b98

----------------
IN: 
0x0009102c:  f0000008  adrp     x8, #0x94000

----------------
IN: 
0x00091030:  910063e0  add      x0, sp, #0x18

----------------
IN: 
0x00091034:  91170108  add      x8, x8, #0x5c0

----------------
IN: 
0x00091038:  9105a3e1  add      x1, sp, #0x168

----------------
IN: 
0x0009103c:  f940090a  ldr      x10, [x8, #0x10]

----------------
IN: 
0x00091040:  a9402109  ldp      x9, x8, [x8]

----------------
IN: 
0x00091044:  f900bfea  str      x10, [sp, #0x178]

----------------
IN: 
0x00091048:  a916a3e9  stp      x9, x8, [sp, #0x168]

----------------
IN: 
0x0009104c:  910003e8  mov      x8, sp

----------------
IN: 
0x00091050:  94000ad2  bl       #0x93b98

----------------
IN: 
0x00091054:  f0000008  adrp     x8, #0x94000

----------------
IN: 
0x00091058:  910003e0  mov      x0, sp

----------------
IN: 
0x0009105c:  91176108  add      x8, x8, #0x5d8

----------------
IN: 
0x00091060:  910603e1  add      x1, sp, #0x180

----------------
IN: 
0x00091064:  f940090a  ldr      x10, [x8, #0x10]

----------------
IN: 
0x00091068:  a9402109  ldp      x9, x8, [x8]

----------------
IN: 
0x0009106c:  f900cbea  str      x10, [sp, #0x190]

----------------
IN: 
0x00091070:  a91823e9  stp      x9, x8, [sp, #0x180]

----------------
IN: 
0x00091074:  910063e8  add      x8, sp, #0x18

----------------
IN: 
0x00091078:  94000ac8  bl       #0x93b98

----------------
IN: 
0x0009107c:  f0000008  adrp     x8, #0x94000

----------------
IN: 
0x00091080:  910063e0  add      x0, sp, #0x18

----------------
IN: 
0x00091084:  9117c108  add      x8, x8, #0x5f0

----------------
IN: 
0x00091088:  910663e1  add      x1, sp, #0x198

----------------
IN: 
0x0009108c:  f940090a  ldr      x10, [x8, #0x10]

----------------
IN: 
0x00091090:  a9402109  ldp      x9, x8, [x8]

----------------
IN: 
0x00091094:  f900d7ea  str      x10, [sp, #0x1a8]

----------------
IN: 
0x00091098:  a919a3e9  stp      x9, x8, [sp, #0x198]

----------------
IN: 
0x0009109c:  910003e8  mov      x8, sp

----------------
IN: 
0x000910a0:  94000abe  bl       #0x93b98

----------------
IN: 
0x000910a4:  910003e0  mov      x0, sp

----------------
IN: 
0x000910a8:  d53c1013  mrs      x19, sctlr_el2

----------------
IN: 
0x000910ac:  94000ab9  bl       #0x93b90

----------------
IN: 
0x000910b0:  8a200273  bic      x19, x19, x0

----------------
IN: 
0x000910b4:  910003e0  mov      x0, sp

----------------
IN: 
0x000910b8:  94000ab2  bl       #0x93b80

----------------
IN: 
0x000910bc:  aa000268  orr      x8, x19, x0

----------------
IN: 
0x000910c0:  d51c1008  msr      sctlr_el2, x8

----------------
IN: 
0x000910c4:  d503201f  nop      

----------------
IN: 
0x000910c8:  d503201f  nop      

----------------
IN: 
0x000910cc:  a95c7bf3  ldp      x19, x30, [sp, #0x1c0]

----------------
IN: 
0x000910d0:  f940dbfc  ldr      x28, [sp, #0x1b0]

----------------
IN: 
0x000910d4:  910743ff  add      sp, sp, #0x1d0

----------------
IN: 
0x000910d8:  d65f03c0  ret      

----------------
IN: 
0x00090810:  35000313  cbnz     w19, #0x90870

----------------
IN: 
0x00090814:  940007dd  bl       #0x92788

----------------
IN: 
0x00092788:  2a1f03e0  mov      w0, wzr

----------------
IN: 
0x0009278c:  d65f03c0  ret      

----------------
IN: 
0x00090818:  52965001  movz     w1, #0xb280

----------------
IN: 
0x0009081c:  52984002  movz     w2, #0xc200

----------------
IN: 
0x00090820:  390033e0  strb     w0, [sp, #0xc]

----------------
IN: 
0x00090824:  72a1dcc1  movk     w1, #0xee6, lsl #16

----------------
IN: 
0x00090828:  72a00022  movk     w2, #0x1, lsl #16

----------------
IN: 
0x0009082c:  910033e0  add      x0, sp, #0xc

----------------
IN: 
0x00090830:  940007d8  bl       #0x92790

----------------
IN: 
0x00092790:  a9bf7bf3  stp      x19, x30, [sp, #-0x10]!

----------------
IN: 
0x00092794:  aa0003f3  mov      x19, x0

----------------
IN: 
0x00092798:  2a0103e0  mov      w0, w1

----------------
IN: 
0x0009279c:  2a0203e1  mov      w1, w2

----------------
IN: 
0x000927a0:  940000ba  bl       #0x92a88

----------------
IN: 
0x00092a88:  d10283ff  sub      sp, sp, #0xa0

----------------
IN: 
0x00092a8c:  a9097bf3  stp      x19, x30, [sp, #0x90]

----------------
IN: 
0x00092a90:  2a0003f3  mov      w19, w0

----------------
IN: 
0x00092a94:  d0000000  adrp     x0, #0x94000

----------------
IN: 
0x00092a98:  f9003bf6  str      x22, [sp, #0x70]

----------------
IN: 
0x00092a9c:  a90853f5  stp      x21, x20, [sp, #0x80]

----------------
IN: 
0x00092aa0:  910003e8  mov      x8, sp

----------------
IN: 
0x00092aa4:  2a0103f4  mov      w20, w1

----------------
IN: 
0x00092aa8:  f9475c00  ldr      x0, [x0, #0xeb8]

----------------
IN: 
0x00092aac:  9400009b  bl       #0x92d18

----------------
IN: 
0x00092d18:  d102c3ff  sub      sp, sp, #0xb0

----------------
IN: 
0x00092d1c:  a9066bfb  stp      x27, x26, [sp, #0x60]

----------------
IN: 
0x00092d20:  a90763f9  stp      x25, x24, [sp, #0x70]

----------------
IN: 
0x00092d24:  a9085bf7  stp      x23, x22, [sp, #0x80]

----------------
IN: 
0x00092d28:  a90953f5  stp      x21, x20, [sp, #0x90]

----------------
IN: 
0x00092d2c:  aa0003f4  mov      x20, x0

----------------
IN: 
0x00092d30:  a90a7bf3  stp      x19, x30, [sp, #0xa0]

----------------
IN: 
0x00092d34:  aa0803f3  mov      x19, x8

----------------
IN: 
0x00092d38:  94000336  bl       #0x93a10

----------------
IN: 
0x00093a10:  a9bf7bf3  stp      x19, x30, [sp, #-0x10]!

----------------
IN: 
0x00093a14:  aa0003f3  mov      x19, x0

----------------
IN: 
0x00093a18:  9400001e  bl       #0x93a90

----------------
IN: 
0x00093a90:  d0000028  adrp     x8, #0x99000

----------------
IN: 
0x00093a94:  91040108  add      x8, x8, #0x100

----------------
IN: 
0x00093a98:  08dffd08  ldarb    w8, [x8]

----------------
IN: 
0x00093a9c:  72001d1f  tst      w8, #0xff

----------------
IN: 
0x00093aa0:  54000040  b.eq     #0x93aa8

----------------
IN: 
0x00093aa8:  d0000028  adrp     x8, #0x99000

----------------
IN: 
0x00093aac:  52800029  movz     w9, #0x1

----------------
IN: 
0x00093ab0:  91041108  add      x8, x8, #0x104

----------------
IN: 
0x00093ab4:  d53b422b  mrs      x11, daif

----------------
IN: 
0x00093ab8:  9100110a  add      x10, x8, #4

----------------
IN: 
0x00093abc:  d50342df  msr      daifset, #2

----------------
IN: 
0x00093ac0:  089ffd09  stlrb    w9, [x8]

----------------
IN: 
0x00093ac4:  d53b4228  mrs      x8, daif

----------------
IN: 
0x00093ac8:  d50341df  msr      daifset, #1

----------------
IN: 
0x00093acc:  089ffd49  stlrb    w9, [x10]

----------------
IN: 
0x00093ad0:  d65f03c0  ret      

----------------
IN: 
0x00093a1c:  52800028  movz     w8, #0x1

----------------
IN: 
0x00093a20:  085ffe69  ldaxrb   w9, [x19]

----------------
IN: 
0x00093a24:  34000089  cbz      w9, #0x93a34

----------------
IN: 
0x00093a34:  0809fe68  stlxrb   w9, w8, [x19]

----------------
IN: 
0x00093a38:  35ffffa9  cbnz     w9, #0x93a2c

----------------
IN: 
0x00093a3c:  a8c17bf3  ldp      x19, x30, [sp], #0x10

----------------
IN: 
0x00093a40:  d65f03c0  ret      

----------------
IN: 
0x00092d3c:  91004295  add      x21, x20, #0x10

----------------
IN: 
0x00092d40:  910083e8  add      x8, sp, #0x20

----------------
IN: 
0x00092d44:  aa1503e0  mov      x0, x21

----------------
IN: 
0x00092d48:  528001c1  movz     w1, #0xe

----------------
IN: 
0x00092d4c:  94000071  bl       #0x92f10

----------------
IN: 
0x00092f10:  d101c3ff  sub      sp, sp, #0x70

----------------
IN: 
0x00092f14:  a90553f5  stp      x21, x20, [sp, #0x50]

----------------
IN: 
0x00092f18:  2a0103f4  mov      w20, w1

----------------
IN: 
0x00092f1c:  2a0103e1  mov      w1, w1

----------------
IN: 
0x00092f20:  71009e9f  cmp      w20, #0x27

----------------
IN: 
0x00092f24:  f90023f6  str      x22, [sp, #0x40]

----------------
IN: 
0x00092f28:  a9067bf3  stp      x19, x30, [sp, #0x60]

----------------
IN: 
0x00092f2c:  54000888  b.hi     #0x9303c

----------------
IN: 
0x00092f30:  aa0803f3  mov      x19, x8

----------------
IN: 
0x00092f34:  38616808  ldrb     w8, [x0, x1]

----------------
IN: 
0x00092f38:  340000e8  cbz      w8, #0x92f54

----------------
IN: 
0x00092f54:  529999aa  movz     w10, #0xcccd

----------------
IN: 
0x00092f58:  12001e89  and      w9, w20, #0xff

----------------
IN: 
0x00092f5c:  72b9998a  movk     w10, #0xcccc, lsl #16

----------------
IN: 
0x00092f60:  52800028  movz     w8, #0x1

----------------
IN: 
0x00092f64:  9baa7d29  umull    x9, w9, w10

----------------
IN: 
0x00092f68:  38216808  strb     w8, [x0, x1]

----------------
IN: 
0x00092f6c:  d363fd28  lsr      x8, x9, #0x23

----------------
IN: 
0x00092f70:  7100151f  cmp      w8, #5

----------------
IN: 
0x00092f74:  b9004ff4  str      w20, [sp, #0x4c]

----------------
IN: 
0x00092f78:  540006c8  b.hi     #0x93050

----------------
IN: 
0x00092f7c:  52800149  movz     w9, #0xa

----------------
IN: 
0x00092f80:  52800095  movz     w21, #0x4

----------------
IN: 
0x00092f84:  72a7e415  movk     w21, #0x3f20, lsl #16

----------------
IN: 
0x00092f88:  52a7e416  movz     w22, #0x3f20, lsl #16

----------------
IN: 
0x00092f8c:  1b09d109  msub     w9, w8, w9, w20

----------------
IN: 
0x00092f90:  0b090529  add      w9, w9, w9, lsl #1

----------------
IN: 
0x00092f94:  12001d21  and      w1, w9, #0xff

----------------
IN: 
0x00092f98:  d0000009  adrp     x9, #0x94000

----------------
IN: 
0x00092f9c:  911be129  add      x9, x9, #0x6f8

----------------
IN: 
0x00092fa0:  1000008a  adr      x10, #0x92fb0

----------------
IN: 
0x00092fa4:  3868692b  ldrb     w11, [x9, x8]

----------------
IN: 
0x00092fa8:  8b0b094a  add      x10, x10, x11, lsl #2

----------------
IN: 
0x00092fac:  d61f0140  br       x10

----------------
IN: 
0x00092fb0:  aa1503f6  mov      x22, x21

----------------
IN: 
0x00092fb4:  14000008  b        #0x92fd4

----------------
IN: 
0x00092fd4:  528000e0  movz     w0, #0x7

----------------
IN: 
0x00092fd8:  940002d4  bl       #0x93b28

----------------
IN: 
0x00093b28:  1ac12000  lsl      w0, w0, w1

----------------
IN: 
0x00093b2c:  d65f03c0  ret      

----------------
IN: 
0x00092fdc:  910062a9  add      x9, x21, #0x18

----------------
IN: 
0x00092fe0:  910072aa  add      x10, x21, #0x1c

----------------
IN: 
0x00092fe4:  7100829f  cmp      w20, #0x20

----------------
IN: 
0x00092fe8:  910092ab  add      x11, x21, #0x24

----------------
IN: 
0x00092fec:  9a8a3129  csel     x9, x9, x10, lo

----------------
IN: 
0x00092ff0:  9100a2ac  add      x12, x21, #0x28

----------------
IN: 
0x00092ff4:  9a8c316a  csel     x10, x11, x12, lo

----------------
IN: 
0x00092ff8:  910252ab  add      x11, x21, #0x94

----------------
IN: 
0x00092ffc:  910262ac  add      x12, x21, #0x98

----------------
IN: 
0x00093000:  aa1f03e8  mov      x8, xzr

----------------
IN: 
0x00093004:  9a8c316b  csel     x11, x11, x12, lo

----------------
IN: 
0x00093008:  a900a676  stp      x22, x9, [x19, #8]

----------------
IN: 
0x0009300c:  52800029  movz     w9, #0x1

----------------
IN: 
0x00093010:  29050660  stp      w0, w1, [x19, #0x28]

----------------
IN: 
0x00093014:  1ad42129  lsl      w9, w9, w20

----------------
IN: 
0x00093018:  b9003a74  str      w20, [x19, #0x38]

----------------
IN: 
0x0009301c:  a901ae6a  stp      x10, x11, [x19, #0x18]

----------------
IN: 
0x00093020:  29062669  stp      w9, w9, [x19, #0x30]

----------------
IN: 
0x00093024:  f9000268  str      x8, [x19]

----------------
IN: 
0x00093028:  a9467bf3  ldp      x19, x30, [sp, #0x60]

----------------
IN: 
0x0009302c:  f94023f6  ldr      x22, [sp, #0x40]

----------------
IN: 
0x00093030:  a94553f5  ldp      x21, x20, [sp, #0x50]

----------------
IN: 
0x00093034:  9101c3ff  add      sp, sp, #0x70

----------------
IN: 
0x00093038:  d65f03c0  ret      

----------------
IN: 
0x00092d50:  f94013e8  ldr      x8, [sp, #0x20]

----------------
IN: 
0x00092d54:  d0000019  adrp     x25, #0x94000

----------------
IN: 
0x00092d58:  f100051f  cmp      x8, #1

----------------
IN: 
0x00092d5c:  54000081  b.ne     #0x92d6c

----------------
IN: 
0x00092d6c:  a942dff6  ldp      x22, x23, [sp, #0x28]

----------------
IN: 
0x00092d70:  5280004d  movz     w13, #0x2

----------------
IN: 
0x00092d74:  f94023e8  ldr      x8, [sp, #0x40]

----------------
IN: 
0x00092d78:  29492fea  ldp      w10, w11, [sp, #0x48]

----------------
IN: 
0x00092d7c:  b94057e9  ldr      w9, [sp, #0x54]

----------------
IN: 
0x00092d80:  b94002cc  ldr      w12, [x22]

----------------
IN: 
0x00092d84:  1acb21ab  lsl      w11, w13, w11

----------------
IN: 
0x00092d88:  0a2a018c  bic      w12, w12, w10

----------------
IN: 
0x00092d8c:  0a0a016a  and      w10, w11, w10

----------------
IN: 
0x00092d90:  2a0a018b  orr      w11, w12, w10

----------------
IN: 
0x00092d94:  f9437b2a  ldr      x10, [x25, #0x6f0]

----------------
IN: 
0x00092d98:  b90002cb  str      w11, [x22]

----------------
IN: 
0x00092d9c:  b940014b  ldr      w11, [x10]

----------------
IN: 
0x00092da0:  121e756c  and      w12, w11, #0xfffffffc

----------------
IN: 
0x00092da4:  528012cb  movz     w11, #0x96

----------------
IN: 
0x00092da8:  b900014c  str      w12, [x10]

----------------
IN: 
0x00092dac:  7100056b  subs     w11, w11, #1

----------------
IN: 
0x00092db0:  d503201f  nop      

----------------
IN: 
0x00092db4:  54ffffc1  b.ne     #0x92dac

----------------
IN: 
0x00092db8:  528012cb  movz     w11, #0x96

----------------
IN: 
0x00092dbc:  b9000109  str      w9, [x8]

----------------
IN: 
0x00092dc0:  7100056b  subs     w11, w11, #1

----------------
IN: 
0x00092dc4:  d503201f  nop      

----------------
IN: 
0x00092dc8:  54ffffc1  b.ne     #0x92dc0

----------------
IN: 
0x00092dcc:  aa1f03f8  mov      x24, xzr

----------------
IN: 
0x00092dd0:  b900015f  str      wzr, [x10]

----------------
IN: 
0x00092dd4:  b9000109  str      w9, [x8]

----------------
IN: 
0x00092dd8:  910083e8  add      x8, sp, #0x20

----------------
IN: 
0x00092ddc:  aa1503e0  mov      x0, x21

----------------
IN: 
0x00092de0:  528001e1  movz     w1, #0xf

----------------
IN: 
0x00092de4:  9400004b  bl       #0x92f10

----------------
IN: 
0x00092de8:  f94013e8  ldr      x8, [sp, #0x20]

----------------
IN: 
0x00092dec:  f100051f  cmp      x8, #1

----------------
IN: 
0x00092df0:  540000c1  b.ne     #0x92e08

----------------
IN: 
0x00092e08:  2949abeb  ldp      w11, w10, [sp, #0x4c]

----------------
IN: 
0x00092e0c:  5280004e  movz     w14, #0x2

----------------
IN: 
0x00092e10:  a942a3e9  ldp      x9, x8, [sp, #0x28]

----------------
IN: 
0x00092e14:  b9404bf5  ldr      w21, [sp, #0x48]

----------------
IN: 
0x00092e18:  b3607d4b  bfi      x11, x10, #0x20, #0x20

----------------
IN: 
0x00092e1c:  a943ebfb  ldp      x27, x26, [sp, #0x38]

----------------
IN: 
0x00092e20:  9e670160  fmov     d0, x11

----------------
IN: 
0x00092e24:  294aafec  ldp      w12, w11, [sp, #0x54]

----------------
IN: 
0x00092e28:  b940012a  ldr      w10, [x9]

----------------
IN: 
0x00092e2c:  b3607d6c  bfi      x12, x11, #0x20, #0x20

----------------
IN: 
0x00092e30:  528012cb  movz     w11, #0x96

----------------
IN: 
0x00092e34:  1e26000d  fmov     w13, s0

----------------
IN: 
0x00092e38:  0a35014a  bic      w10, w10, w21

----------------
IN: 
0x00092e3c:  9e670181  fmov     d1, x12

----------------
IN: 
0x00092e40:  1acd21cd  lsl      w13, w14, w13

----------------
IN: 
0x00092e44:  0a1501ad  and      w13, w13, w21

----------------
IN: 
0x00092e48:  2a0d014d  orr      w13, w10, w13

----------------
IN: 
0x00092e4c:  f9437b2a  ldr      x10, [x25, #0x6f0]

----------------
IN: 
0x00092e50:  b900012d  str      w13, [x9]

----------------
IN: 
0x00092e54:  b940014d  ldr      w13, [x10]

----------------
IN: 
0x00092e58:  121e75ad  and      w13, w13, #0xfffffffc

----------------
IN: 
0x00092e5c:  b900014d  str      w13, [x10]

----------------
IN: 
0x00092e60:  7100056b  subs     w11, w11, #1

----------------
IN: 
0x00092e64:  d503201f  nop      

----------------
IN: 
0x00092e68:  54ffffc1  b.ne     #0x92e60

----------------
IN: 
0x00092e6c:  1e26002b  fmov     w11, s1

----------------
IN: 
0x00092e70:  528012cc  movz     w12, #0x96

----------------
IN: 
0x00092e74:  ad0003e1  stp      q1, q0, [sp]

----------------
IN: 
0x00092e78:  bd000341  str      s1, [x26]

----------------
IN: 
0x00092e7c:  7100058c  subs     w12, w12, #1

----------------
IN: 
0x00092e80:  d503201f  nop      

----------------
IN: 
0x00092e84:  54ffffc1  b.ne     #0x92e7c

----------------
IN: 
0x00092e88:  aa1f03ec  mov      x12, xzr

----------------
IN: 
0x00092e8c:  b900015f  str      wzr, [x10]

----------------
IN: 
0x00092e90:  b900034b  str      w11, [x26]

----------------
IN: 
0x00092e94:  aa1403e0  mov      x0, x20

----------------
IN: 
0x00092e98:  f100031f  cmp      x24, #0

----------------
IN: 
0x00092e9c:  9a9f0598  csinc    x24, x12, xzr, eq

----------------
IN: 
0x00092ea0:  9a8912d6  csel     x22, x22, x9, ne

----------------
IN: 
0x00092ea4:  9a8812f7  csel     x23, x23, x8, ne

----------------
IN: 
0x00092ea8:  940002e8  bl       #0x93a48

----------------
IN: 
0x00093a48:  089ffc1f  stlrb    wzr, [x0]

----------------
IN: 
0x00093a4c:  14000023  b        #0x93ad8

----------------
IN: 
0x00093ad8:  d0000028  adrp     x8, #0x99000

----------------
IN: 
0x00093adc:  91040108  add      x8, x8, #0x100

----------------
IN: 
0x00093ae0:  08dffd08  ldarb    w8, [x8]

----------------
IN: 
0x00093ae4:  72001d1f  tst      w8, #0xff

----------------
IN: 
0x00093ae8:  540001e1  b.ne     #0x93b24

----------------
IN: 
0x00093aec:  d0000028  adrp     x8, #0x99000

----------------
IN: 
0x00093af0:  91041108  add      x8, x8, #0x104

----------------
IN: 
0x00093af4:  08dffd08  ldarb    w8, [x8]

----------------
IN: 
0x00093af8:  72001d1f  tst      w8, #0xff

----------------
IN: 
0x00093afc:  54000060  b.eq     #0x93b08

----------------
IN: 
0x00093b00:  d50342ff  msr      daifclr, #2

----------------
IN: 
0x00093b04:  d5033fdf  isb      

----------------
IN: 
0x00093b08:  d0000028  adrp     x8, #0x99000

----------------
IN: 
0x00093b0c:  91042108  add      x8, x8, #0x108

----------------
IN: 
0x00093b10:  08dffd08  ldarb    w8, [x8]

----------------
IN: 
0x00093b14:  72001d1f  tst      w8, #0xff

----------------
IN: 
0x00093b18:  54000060  b.eq     #0x93b24

----------------
IN: 
0x00093b1c:  d50341ff  msr      daifclr, #1

----------------
IN: 
0x00093b20:  d5033fdf  isb      

----------------
IN: 
0x00093b24:  d65f03c0  ret      

----------------
IN: 
0x00092eac:  3dc007e0  ldr      q0, [sp, #0x10]

----------------
IN: 
0x00092eb0:  a9005a78  stp      x24, x22, [x19]

----------------
IN: 
0x00092eb4:  a9016e77  stp      x23, x27, [x19, #0x10]

----------------
IN: 
0x00092eb8:  f900127a  str      x26, [x19, #0x20]

----------------
IN: 
0x00092ebc:  9e660008  fmov     x8, d0

----------------
IN: 
0x00092ec0:  3dc003e0  ldr      q0, [sp]

----------------
IN: 
0x00092ec4:  a9485bf7  ldp      x23, x22, [sp, #0x80]

----------------
IN: 
0x00092ec8:  a94763f9  ldp      x25, x24, [sp, #0x70]

----------------
IN: 
0x00092ecc:  9e66000a  fmov     x10, d0

----------------
IN: 
0x00092ed0:  a9466bfb  ldp      x27, x26, [sp, #0x60]

----------------
IN: 
0x00092ed4:  d360fd09  lsr      x9, x8, #0x20

----------------
IN: 
0x00092ed8:  29052275  stp      w21, w8, [x19, #0x28]

----------------
IN: 
0x00092edc:  a94953f5  ldp      x21, x20, [sp, #0x90]

----------------
IN: 
0x00092ee0:  d360fd48  lsr      x8, x10, #0x20

----------------
IN: 
0x00092ee4:  29062a69  stp      w9, w10, [x19, #0x30]

----------------
IN: 
0x00092ee8:  b9003a68  str      w8, [x19, #0x38]

----------------
IN: 
0x00092eec:  a94a7bf3  ldp      x19, x30, [sp, #0xa0]

----------------
IN: 
0x00092ef0:  9102c3ff  add      sp, sp, #0xb0

----------------
IN: 
0x00092ef4:  d65f03c0  ret      

----------------
IN: 
0x00092ab0:  f94003e8  ldr      x8, [sp]

----------------
IN: 
0x00092ab4:  f100051f  cmp      x8, #1

----------------
IN: 
0x00092ab8:  54000061  b.ne     #0x92ac4

----------------
IN: 
0x00092ac4:  d0000008  adrp     x8, #0x94000

----------------
IN: 
0x00092ac8:  52800029  movz     w9, #0x1

----------------
IN: 
0x00092acc:  d000000a  adrp     x10, #0x94000

----------------
IN: 
0x00092ad0:  d000000b  adrp     x11, #0x94000

----------------
IN: 
0x00092ad4:  d000000c  adrp     x12, #0x94000

----------------
IN: 
0x00092ad8:  528000c0  movz     w0, #0x6

----------------
IN: 
0x00092adc:  f9432508  ldr      x8, [x8, #0x648]

----------------
IN: 
0x00092ae0:  52800021  movz     w1, #0x1

----------------
IN: 
0x00092ae4:  52800062  movz     w2, #0x3

----------------
IN: 
0x00092ae8:  b9000109  str      w9, [x8]

----------------
IN: 
0x00092aec:  d0000008  adrp     x8, #0x94000

----------------
IN: 
0x00092af0:  f9432949  ldr      x9, [x10, #0x650]

----------------
IN: 
0x00092af4:  f9432d75  ldr      x21, [x11, #0x658]

----------------
IN: 
0x00092af8:  5280006b  movz     w11, #0x3

----------------
IN: 
0x00092afc:  f943318a  ldr      x10, [x12, #0x660]

----------------
IN: 
0x00092b00:  f9433508  ldr      x8, [x8, #0x668]

----------------
IN: 
0x00092b04:  b900013f  str      wzr, [x9]

----------------
IN: 
0x00092b08:  b90002bf  str      wzr, [x21]

----------------
IN: 
0x00092b0c:  b900014b  str      w11, [x10]

----------------
IN: 
0x00092b10:  b900011f  str      wzr, [x8]

----------------
IN: 
0x00092b14:  910143e8  add      x8, sp, #0x50

----------------
IN: 
0x00092b18:  b900013f  str      wzr, [x9]

----------------
IN: 
0x00092b1c:  94000405  bl       #0x93b30

----------------
IN: 
0x00093b30:  1ac12049  lsl      w9, w2, w1

----------------
IN: 
0x00093b34:  29000500  stp      w0, w1, [x8]

----------------
IN: 
0x00093b38:  b9000909  str      w9, [x8, #8]

----------------
IN: 
0x00093b3c:  d65f03c0  ret      

----------------
IN: 
0x00092b20:  910183e8  add      x8, sp, #0x60

----------------
IN: 
0x00092b24:  52801800  movz     w0, #0xc0

----------------
IN: 
0x00092b28:  528000c1  movz     w1, #0x6

----------------
IN: 
0x00092b2c:  52800062  movz     w2, #0x3

----------------
IN: 
0x00092b30:  94000400  bl       #0x93b30

----------------
IN: 
0x00092b34:  910103e8  add      x8, sp, #0x40

----------------
IN: 
0x00092b38:  910143e0  add      x0, sp, #0x50

----------------
IN: 
0x00092b3c:  910183e1  add      x1, sp, #0x60

----------------
IN: 
0x00092b40:  94000406  bl       #0x93b58

----------------
IN: 
0x00093b58:  b9400009  ldr      w9, [x0]

----------------
IN: 
0x00093b5c:  b940002a  ldr      w10, [x1]

----------------
IN: 
0x00093b60:  b940080b  ldr      w11, [x0, #8]

----------------
IN: 
0x00093b64:  b940082c  ldr      w12, [x1, #8]

----------------
IN: 
0x00093b68:  2a090149  orr      w9, w10, w9

----------------
IN: 
0x00093b6c:  2a0b018a  orr      w10, w12, w11

----------------
IN: 
0x00093b70:  29007d09  stp      w9, wzr, [x8]

----------------
IN: 
0x00093b74:  b900090a  str      w10, [x8, #8]

----------------
IN: 
0x00093b78:  d65f03c0  ret      

----------------
IN: 
0x00092b44:  29482fe8  ldp      w8, w11, [sp, #0x40]

----------------
IN: 
0x00092b48:  d0000009  adrp     x9, #0x94000

----------------
IN: 
0x00092b4c:  12800016  movn     w22, #0

----------------
IN: 
0x00092b50:  b9404bea  ldr      w10, [sp, #0x48]

----------------
IN: 
0x00092b54:  f9433929  ldr      x9, [x9, #0x670]

----------------
IN: 
0x00092b58:  0a080148  and      w8, w10, w8

----------------
IN: 
0x00092b5c:  1acb22ca  lsl      w10, w22, w11

----------------
IN: 
0x00092b60:  0a0a010a  and      w10, w8, w10

----------------
IN: 
0x00092b64:  531d7288  lsl      w8, w20, #3

----------------
IN: 
0x00092b68:  b900012a  str      w10, [x9]

----------------
IN: 
0x00092b6c:  34000428  cbz      w8, #0x92bf0

----------------
IN: 
0x00092b70:  d0000009  adrp     x9, #0x94000

----------------
IN: 
0x00092b74:  1ac80a68  udiv     w8, w19, w8

----------------
IN: 
0x00092b78:  52800020  movz     w0, #0x1

----------------
IN: 
0x00092b7c:  2a1f03e1  mov      w1, wzr

----------------
IN: 
0x00092b80:  51000508  sub      w8, w8, #1

----------------
IN: 
0x00092b84:  52800022  movz     w2, #0x1

----------------
IN: 
0x00092b88:  f9433d29  ldr      x9, [x9, #0x678]

----------------
IN: 
0x00092b8c:  b9000128  str      w8, [x9]

----------------
IN: 
0x00092b90:  910143e8  add      x8, sp, #0x50

----------------
IN: 
0x00092b94:  940003e7  bl       #0x93b30

----------------
IN: 
0x00092b98:  910183e8  add      x8, sp, #0x60

----------------
IN: 
0x00092b9c:  52800040  movz     w0, #0x2

----------------
IN: 
0x00092ba0:  52800021  movz     w1, #0x1

----------------
IN: 
0x00092ba4:  52800022  movz     w2, #0x1

----------------
IN: 
0x00092ba8:  940003e2  bl       #0x93b30

----------------
IN: 
0x00092bac:  910103e8  add      x8, sp, #0x40

----------------
IN: 
0x00092bb0:  910143e0  add      x0, sp, #0x50

----------------
IN: 
0x00092bb4:  910183e1  add      x1, sp, #0x60

----------------
IN: 
0x00092bb8:  940003e8  bl       #0x93b58

----------------
IN: 
0x00092bbc:  29482be8  ldp      w8, w10, [sp, #0x40]

----------------
IN: 
0x00092bc0:  aa1f03e0  mov      x0, xzr

----------------
IN: 
0x00092bc4:  aa1f03e1  mov      x1, xzr

----------------
IN: 
0x00092bc8:  b9404be9  ldr      w9, [sp, #0x48]

----------------
IN: 
0x00092bcc:  0a080128  and      w8, w9, w8

----------------
IN: 
0x00092bd0:  1aca22c9  lsl      w9, w22, w10

----------------
IN: 
0x00092bd4:  0a090108  and      w8, w8, w9

----------------
IN: 
0x00092bd8:  b90002a8  str      w8, [x21]

----------------
IN: 
0x00092bdc:  a9497bf3  ldp      x19, x30, [sp, #0x90]

----------------
IN: 
0x00092be0:  f9403bf6  ldr      x22, [sp, #0x70]

----------------
IN: 
0x00092be4:  a94853f5  ldp      x21, x20, [sp, #0x80]

----------------
IN: 
0x00092be8:  910283ff  add      sp, sp, #0xa0

----------------
IN: 
0x00092bec:  d65f03c0  ret      

----------------
IN: 
0x000927a4:  b4000060  cbz      x0, #0x927b0

----------------
IN: 
0x000927b0:  52800028  movz     w8, #0x1

----------------
IN: 
0x000927b4:  aa1f03e1  mov      x1, xzr

----------------
IN: 
0x000927b8:  39000268  strb     w8, [x19]

----------------
IN: 
0x000927bc:  a8c17bf3  ldp      x19, x30, [sp], #0x10

----------------
IN: 
0x000927c0:  d65f03c0  ret      

----------------
IN: 
0x00090834:  90000021  adrp     x1, #0x94000

----------------
IN: 
0x00090838:  528007a2  movz     w2, #0x3d

----------------
IN: 
0x0009083c:  910f4021  add      x1, x1, #0x3d0

----------------
IN: 
0x00090840:  910033e0  add      x0, sp, #0xc

----------------
IN: 
0x00090844:  940007e1  bl       #0x927c8

----------------
IN: 
0x000927c8:  f81c0ff8  str      x24, [sp, #0xffffffffffffffc0]!

----------------
IN: 
0x000927cc:  39400008  ldrb     w8, [x0]

----------------
IN: 
0x000927d0:  a9015bf7  stp      x23, x22, [sp, #0x10]

----------------
IN: 
0x000927d4:  a90253f5  stp      x21, x20, [sp, #0x20]

----------------
IN: 
0x000927d8:  a9037bf3  stp      x19, x30, [sp, #0x30]

----------------
IN: 
0x000927dc:  7100011f  cmp      w8, #0

----------------
IN: 
0x000927e0:  fa401844  ccmp     x2, #0, #4, ne

----------------
IN: 
0x000927e4:  54000300  b.eq     #0x92844

----------------
IN: 
0x000927e8:  d0000008  adrp     x8, #0x94000

----------------
IN: 
0x000927ec:  d0000009  adrp     x9, #0x94000

----------------
IN: 
0x000927f0:  aa0103f3  mov      x19, x1

----------------
IN: 
0x000927f4:  8b020037  add      x23, x1, x2

----------------
IN: 
0x000927f8:  52800154  movz     w20, #0xa

----------------
IN: 
0x000927fc:  f9434115  ldr      x21, [x8, #0x680]

----------------
IN: 
0x00092800:  f9434536  ldr      x22, [x9, #0x688]

----------------
IN: 
0x00092804:  b94002a8  ldr      w8, [x21]

----------------
IN: 
0x00092808:  91000678  add      x24, x19, #1

----------------
IN: 
0x0009280c:  36280128  tbz      w8, #5, #0x92830

----------------
IN: 
0x00092810:  39400268  ldrb     w8, [x19]

----------------
IN: 
0x00092814:  aa1803f3  mov      x19, x24

----------------
IN: 
0x00092818:  eb17031f  cmp      x24, x23

----------------
IN: 
0x0009281c:  b90002c8  str      w8, [x22]

----------------
IN: 
0x00092820:  54000120  b.eq     #0x92844

----------------
IN: 
0x00092824:  b94002a8  ldr      w8, [x21]

----------------
IN: 
0x00092828:  91000678  add      x24, x19, #1

----------------
IN: 
0x0009282c:  372fff28  tbnz     w8, #5, #0x400092810

----------------
IN: 
0x00092844:  a9437bf3  ldp      x19, x30, [sp, #0x30]

----------------
IN: 
0x00092848:  a94253f5  ldp      x21, x20, [sp, #0x20]

----------------
IN: 
0x0009284c:  a9415bf7  ldp      x23, x22, [sp, #0x10]

----------------
IN: 
0x00092850:  f84407f8  ldr      x24, [sp], #0x40

----------------
IN: 
0x00092854:  d65f03c0  ret      

----------------
IN: 
0x00090848:  90000033  adrp     x19, #0x94000

----------------
IN: 
0x0009084c:  f9475273  ldr      x19, [x19, #0xea0]

----------------
IN: 
0x00090850:  aa1303e0  mov      x0, x19

----------------
IN: 
0x00090854:  94000c6f  bl       #0x93a10

----------------
IN: 
0x00090858:  91004260  add      x0, x19, #0x10

----------------
IN: 
0x0009085c:  94000b4f  bl       #0x93598

----------------
IN: 
0x00093598:  b0000008  adrp     x8, #0x94000

----------------
IN: 
0x0009359c:  b0000009  adrp     x9, #0x94000

----------------
IN: 
0x000935a0:  b000000a  adrp     x10, #0x94000

----------------
IN: 
0x000935a4:  b000000b  adrp     x11, #0x94000

----------------
IN: 
0x000935a8:  1280000c  movn     w12, #0

----------------
IN: 
0x000935ac:  f943e908  ldr      x8, [x8, #0x7d0]

----------------
IN: 
0x000935b0:  f943ed29  ldr      x9, [x9, #0x7d8]

----------------
IN: 
0x000935b4:  f943f14a  ldr      x10, [x10, #0x7e0]

----------------
IN: 
0x000935b8:  f943f56b  ldr      x11, [x11, #0x7e8]

----------------
IN: 
0x000935bc:  b900010c  str      w12, [x8]

----------------
IN: 
0x000935c0:  b0000008  adrp     x8, #0x94000

----------------
IN: 
0x000935c4:  b900012c  str      w12, [x9]

----------------
IN: 
0x000935c8:  b0000009  adrp     x9, #0x94000

----------------
IN: 
0x000935cc:  b900014c  str      w12, [x10]

----------------
IN: 
0x000935d0:  d5033fbf  dmb      sy

----------------
IN: 
0x000935d4:  b900017f  str      wzr, [x11]

----------------
IN: 
0x000935d8:  b000000a  adrp     x10, #0x94000

----------------
IN: 
0x000935dc:  b000000b  adrp     x11, #0x94000

----------------
IN: 
0x000935e0:  f943f908  ldr      x8, [x8, #0x7f0]

----------------
IN: 
0x000935e4:  f943fd29  ldr      x9, [x9, #0x7f8]

----------------
IN: 
0x000935e8:  5280010c  movz     w12, #0x8

----------------
IN: 
0x000935ec:  f944014a  ldr      x10, [x10, #0x800]

----------------
IN: 
0x000935f0:  f944056b  ldr      x11, [x11, #0x808]

----------------
IN: 
0x000935f4:  b900010c  str      w12, [x8]

----------------
IN: 
0x000935f8:  b900012c  str      w12, [x9]

----------------
IN: 
0x000935fc:  b900014c  str      w12, [x10]

----------------
IN: 
0x00093600:  b900016c  str      w12, [x11]

----------------
IN: 
0x00093604:  d65f03c0  ret      

----------------
IN: 
0x00090860:  aa1303e0  mov      x0, x19

----------------
IN: 
0x00090864:  94000c79  bl       #0x93a48

----------------
IN: 
0x00090868:  910033e0  add      x0, sp, #0xc

----------------
IN: 
0x0009086c:  94000875  bl       #0x92a40

----------------
IN: 
0x00092a40:  f81e0ff4  str      x20, [sp, #0xffffffffffffffe0]!

----------------
IN: 
0x00092a44:  a9017bf3  stp      x19, x30, [sp, #0x10]

----------------
IN: 
0x00092a48:  d0000013  adrp     x19, #0x94000

----------------
IN: 
0x00092a4c:  f9475e73  ldr      x19, [x19, #0xeb8]

----------------
IN: 
0x00092a50:  aa1303e0  mov      x0, x19

----------------
IN: 
0x00092a54:  940003ef  bl       #0x93a10

----------------
IN: 
0x00092a58:  91004274  add      x20, x19, #0x10

----------------
IN: 
0x00092a5c:  528001c1  movz     w1, #0xe

----------------
IN: 
0x00092a60:  aa1403e0  mov      x0, x20

----------------
IN: 
0x00092a64:  9400018b  bl       #0x93090

----------------
IN: 
0x00093090:  2a0103e8  mov      w8, w1

----------------
IN: 
0x00093094:  2a0103e1  mov      w1, w1

----------------
IN: 
0x00093098:  71009d1f  cmp      w8, #0x27

----------------
IN: 
0x0009309c:  540000a8  b.hi     #0x930b0

----------------
IN: 
0x000930a0:  38616808  ldrb     w8, [x0, x1]

----------------
IN: 
0x000930a4:  34000048  cbz      w8, #0x930ac

----------------
IN: 
0x000930a8:  3821681f  strb     wzr, [x0, x1]

----------------
IN: 
0x000930ac:  d65f03c0  ret      

----------------
IN: 
0x00092a68:  aa1403e0  mov      x0, x20

----------------
IN: 
0x00092a6c:  528001e1  movz     w1, #0xf

----------------
IN: 
0x00092a70:  94000188  bl       #0x93090

----------------
IN: 
0x00092a74:  aa1303e0  mov      x0, x19

----------------
IN: 
0x00092a78:  a9417bf3  ldp      x19, x30, [sp, #0x10]

----------------
IN: 
0x00092a7c:  f84207f4  ldr      x20, [sp], #0x20

----------------
IN: 
0x00092a80:  140003f2  b        #0x93a48

----------------
IN: 
0x00090870:  94000002  bl       #0x90878

----------------
IN: 
0x00090878:  a9be53f5  stp      x21, x20, [sp, #-0x20]!

----------------
IN: 
0x0009087c:  a9017bf3  stp      x19, x30, [sp, #0x10]

----------------
IN: 
0x00090880:  b0000033  adrp     x19, #0x95000

----------------
IN: 
0x00090884:  91000273  add      x19, x19, #0

----------------
IN: 
0x00090888:  aa1303e0  mov      x0, x19

----------------
IN: 
0x0009088c:  94000c61  bl       #0x93a10

----------------
IN: 
0x00090890:  91004274  add      x20, x19, #0x10

----------------
IN: 
0x00090894:  52965001  movz     w1, #0xb280

----------------
IN: 
0x00090898:  52984002  movz     w2, #0xc200

----------------
IN: 
0x0009089c:  72a1dcc1  movk     w1, #0xee6, lsl #16

----------------
IN: 
0x000908a0:  72a00022  movk     w2, #0x1, lsl #16

----------------
IN: 
0x000908a4:  aa1403e0  mov      x0, x20

----------------
IN: 
0x000908a8:  940007ba  bl       #0x92790

----------------
IN: 
0x000908ac:  90000021  adrp     x1, #0x94000

----------------
IN: 
0x000908b0:  528002a2  movz     w2, #0x15

----------------
IN: 
0x000908b4:  91103421  add      x1, x1, #0x40d

----------------
IN: 
0x000908b8:  aa1403e0  mov      x0, x20

----------------
IN: 
0x000908bc:  940007c3  bl       #0x927c8

----------------
IN: 
0x000908c0:  aa1403e0  mov      x0, x20

----------------
IN: 
0x000908c4:  2a1f03e1  mov      w1, wzr

----------------
IN: 
0x000908c8:  94000858  bl       #0x92a28

----------------
IN: 
0x00092a28:  39400008  ldrb     w8, [x0]

----------------
IN: 
0x00092a2c:  34000068  cbz      w8, #0x92a38

----------------
IN: 
0x00092a30:  2a0103e0  mov      w0, w1

----------------
IN: 
0x00092a34:  14000077  b        #0x92c10

----------------
IN: 
0x00092c10:  d10143ff  sub      sp, sp, #0x50

----------------
IN: 
0x00092c14:  72001c08  ands     w8, w0, #0xff

----------------
IN: 
0x00092c18:  a9047bf3  stp      x19, x30, [sp, #0x40]

----------------
IN: 
0x00092c1c:  54000340  b.eq     #0x92c84

----------------
IN: 
0x00092c84:  910083e8  add      x8, sp, #0x20

----------------
IN: 
0x00092c88:  52800180  movz     w0, #0xc

----------------
IN: 
0x00092c8c:  52800041  movz     w1, #0x2

----------------
IN: 
0x00092c90:  52800062  movz     w2, #0x3

----------------
IN: 
0x00092c94:  910043f3  add      x19, sp, #0x10

----------------
IN: 
0x00092c98:  940003a6  bl       #0x93b30

----------------
IN: 
0x00092c9c:  9100c3e8  add      x8, sp, #0x30

----------------
IN: 
0x00092ca0:  52800020  movz     w0, #0x1

----------------
IN: 
0x00092ca4:  2a1f03e1  mov      w1, wzr

----------------
IN: 
0x00092ca8:  1400000a  b        #0x92cd0

----------------
IN: 
0x00092cd0:  52800022  movz     w2, #0x1

----------------
IN: 
0x00092cd4:  94000397  bl       #0x93b30

----------------
IN: 
0x00092cd8:  910043e8  add      x8, sp, #0x10

----------------
IN: 
0x00092cdc:  910083e0  add      x0, sp, #0x20

----------------
IN: 
0x00092ce0:  9100c3e1  add      x1, sp, #0x30

----------------
IN: 
0x00092ce4:  9400039d  bl       #0x93b58

----------------
IN: 
0x00092ce8:  2940a26b  ldp      w11, w8, [x19, #4]

----------------
IN: 
0x00092cec:  d0000009  adrp     x9, #0x94000

----------------
IN: 
0x00092cf0:  1280000c  movn     w12, #0

----------------
IN: 
0x00092cf4:  b940026a  ldr      w10, [x19]

----------------
IN: 
0x00092cf8:  f9432929  ldr      x9, [x9, #0x650]

----------------
IN: 
0x00092cfc:  0a0a0108  and      w8, w8, w10

----------------
IN: 
0x00092d00:  1acb218a  lsl      w10, w12, w11

----------------
IN: 
0x00092d04:  0a0a0108  and      w8, w8, w10

----------------
IN: 
0x00092d08:  b9000128  str      w8, [x9]

----------------
IN: 
0x00092d0c:  a9447bf3  ldp      x19, x30, [sp, #0x40]

----------------
IN: 
0x00092d10:  910143ff  add      sp, sp, #0x50

----------------
IN: 
0x00092d14:  d65f03c0  ret      

----------------
IN: 
0x000908cc:  aa1303e0  mov      x0, x19

----------------
IN: 
0x000908d0:  94000c5e  bl       #0x93a48

----------------
IN: 
0x000908d4:  90000033  adrp     x19, #0x94000

----------------
IN: 
0x000908d8:  f9475273  ldr      x19, [x19, #0xea0]

----------------
IN: 
0x000908dc:  aa1303e0  mov      x0, x19

----------------
IN: 
0x000908e0:  94000c4c  bl       #0x93a10

----------------
IN: 
0x000908e4:  528003b5  movz     w21, #0x1d

----------------
IN: 
0x000908e8:  91004260  add      x0, x19, #0x10

----------------
IN: 
0x000908ec:  2a1503e1  mov      w1, w21

----------------
IN: 
0x000908f0:  94000b46  bl       #0x93608

----------------
IN: 
0x00093608:  2a0103e8  mov      w8, w1

----------------
IN: 
0x0009360c:  53051c21  ubfx     w1, w1, #5, #3

----------------
IN: 
0x00093610:  71000c3f  cmp      w1, #3

----------------
IN: 
0x00093614:  54000320  b.eq     #0x93678

----------------
IN: 
0x00093618:  d37ef429  lsl      x9, x1, #2

----------------
IN: 
0x0009361c:  12001d08  and      w8, w8, #0xff

----------------
IN: 
0x00093620:  5280002b  movz     w11, #0x1

----------------
IN: 
0x00093624:  b869680a  ldr      w10, [x0, x9]

----------------
IN: 
0x00093628:  1ac82168  lsl      w8, w11, w8

----------------
IN: 
0x0009362c:  2a08014a  orr      w10, w10, w8

----------------
IN: 
0x00093630:  b829680a  str      w10, [x0, x9]

----------------
IN: 
0x00093634:  34000161  cbz      w1, #0x93660

----------------
IN: 
0x00093660:  b0000009  adrp     x9, #0x94000

----------------
IN: 
0x00093664:  91208129  add      x9, x9, #0x820

----------------
IN: 
0x00093668:  f9400129  ldr      x9, [x9]

----------------
IN: 
0x0009366c:  b9000128  str      w8, [x9]

----------------
IN: 
0x00093670:  d5033fbf  dmb      sy

----------------
IN: 
0x00093674:  d65f03c0  ret      

----------------
IN: 
0x000908f4:  aa1303e0  mov      x0, x19

----------------
IN: 
0x000908f8:  94000c54  bl       #0x93a48

----------------
IN: 
0x000908fc:  94000c5f  bl       #0x93a78

----------------
IN: 
0x00093a78:  d50342ff  msr      daifclr, #2

----------------
IN: 
0x00093a7c:  d5033fdf  isb      

----------------
IN: 
0x00093a80:  d50341ff  msr      daifclr, #1

----------------
IN: 
0x00093a84:  d5033fdf  isb      

----------------
IN: 
0x00093a88:  d65f03c0  ret      

----------------
IN: 
0x00090900:  90000021  adrp     x1, #0x94000

----------------
IN: 
0x00090904:  aa1403e0  mov      x0, x20

----------------
IN: 
0x00090908:  91108821  add      x1, x1, #0x422

----------------
IN: 
0x0009090c:  aa1503e2  mov      x2, x21

----------------
IN: 
0x00090910:  940007ae  bl       #0x927c8

----------------
IN: 
0x00090914:  b0000033  adrp     x19, #0x95000

----------------
IN: 
0x00090918:  91008273  add      x19, x19, #0x20

----------------
IN: 
0x0009091c:  aa1303e0  mov      x0, x19

----------------
IN: 
0x00090920:  d503205f  wfe      

----------------
IN: 
0x00090924:  94000bbb  bl       #0x93810

----------------
IN: 
0x00093810:  f81e0ff4  str      x20, [sp, #0xffffffffffffffe0]!

----------------
IN: 
0x00093814:  a9017bf3  stp      x19, x30, [sp, #0x10]

----------------
IN: 
0x00093818:  aa0003f3  mov      x19, x0

----------------
IN: 
0x0009381c:  52800034  movz     w20, #0x1

----------------
IN: 
0x00093820:  9400009c  bl       #0x93a90

----------------
IN: 
0x00093824:  085f7e68  ldxrb    w8, [x19]

----------------
IN: 
0x00093828:  34000088  cbz      w8, #0x93838

----------------
IN: 
0x00093838:  08087e74  stxrb    w8, w20, [x19]

----------------
IN: 
0x0009383c:  35ffffa8  cbnz     w8, #0x93830

----------------
IN: 
0x00093840:  d50339bf  dmb      ishld

----------------
IN: 
0x00093844:  b9400668  ldr      w8, [x19, #4]

----------------
IN: 
0x00093848:  35000d68  cbnz     w8, #0x939f4

----------------
IN: 
0x0009384c:  089ffe7f  stlrb    wzr, [x19]

----------------
IN: 
0x00093850:  940000a2  bl       #0x93ad8

----------------
IN: 
0x00093854:  d503201f  nop      

----------------
IN: 
0x00093858:  d503201f  nop      

----------------
IN: 
0x0009385c:  d503201f  nop      

----------------
IN: 
0x00093860:  d503201f  nop      

----------------
IN: 
0x00093864:  d503201f  nop      

----------------
IN: 
0x00093868:  d503201f  nop      

----------------
IN: 
0x0009386c:  d503201f  nop      

----------------
IN: 
0x00093870:  d503201f  nop      

----------------
IN: 
0x00093874:  d503201f  nop      

----------------
IN: 
0x00093878:  d503201f  nop      

----------------
IN: 
0x0009387c:  d503201f  nop      

----------------
IN: 
0x00093880:  d503201f  nop      

----------------
IN: 
0x00093884:  d503201f  nop      

----------------
IN: 
0x00093888:  d503201f  nop      

----------------
IN: 
0x0009388c:  d503201f  nop      

----------------
IN: 
0x00093890:  d503201f  nop      

----------------
IN: 
0x00093894:  d503201f  nop      

----------------
IN: 
0x00093898:  d503201f  nop      

----------------
IN: 
0x0009389c:  d503201f  nop      

----------------
IN: 
0x000938a0:  d503201f  nop      

----------------
IN: 
0x000938a4:  d503201f  nop      

----------------
IN: 
0x000938a8:  d503201f  nop      

----------------
IN: 
0x000938ac:  d503201f  nop      

----------------
IN: 
0x000938b0:  d503201f  nop      

----------------
IN: 
0x000938b4:  d503201f  nop      

----------------
IN: 
0x000938b8:  d503201f  nop      

----------------
IN: 
0x000938bc:  d503201f  nop      

----------------
IN: 
0x000938c0:  d503201f  nop      

----------------
IN: 
0x000938c4:  d503201f  nop      

----------------
IN: 
0x000938c8:  d503201f  nop      

----------------
IN: 
0x000938cc:  d503201f  nop      

----------------
IN: 
0x000938d0:  d503201f  nop      

----------------
IN: 
0x000938d4:  d503201f  nop      

----------------
IN: 
0x000938d8:  d503201f  nop      

----------------
IN: 
0x000938dc:  d503201f  nop      

----------------
IN: 
0x000938e0:  d503201f  nop      

----------------
IN: 
0x000938e4:  d503201f  nop      

----------------
IN: 
0x000938e8:  d503201f  nop      

----------------
IN: 
0x000938ec:  d503201f  nop      

----------------
IN: 
0x000938f0:  d503201f  nop      

----------------
IN: 
0x000938f4:  d503201f  nop      

----------------
IN: 
0x000938f8:  d503201f  nop      

----------------
IN: 
0x000938fc:  d503201f  nop      

----------------
IN: 
0x00093900:  d503201f  nop      

----------------
IN: 
0x00093904:  d503201f  nop      

----------------
IN: 
0x00093908:  d503201f  nop      

----------------
IN: 
0x0009390c:  d503201f  nop      

----------------
IN: 
0x00093910:  d503201f  nop      

----------------
IN: 
0x00093914:  d503201f  nop      

----------------
IN: 
0x00093918:  d503201f  nop      

----------------
IN: 
0x0009391c:  d503201f  nop      

----------------
IN: 
0x00093920:  d503201f  nop      

----------------
IN: 
0x00093924:  d503201f  nop      

----------------
IN: 
0x00093928:  d503201f  nop      

----------------
IN: 
0x0009392c:  d503201f  nop      

----------------
IN: 
0x00093930:  d503201f  nop      

----------------
IN: 
0x00093934:  d503201f  nop      

----------------
IN: 
0x00093938:  d503201f  nop      

----------------
IN: 
0x0009393c:  d503201f  nop      

----------------
IN: 
0x00093940:  d503201f  nop      

----------------
IN: 
0x00093944:  d503201f  nop      

----------------
IN: 
0x00093948:  d503201f  nop      

----------------
IN: 
0x0009394c:  d503201f  nop      

----------------
IN: 
0x00093950:  d503201f  nop      

----------------
IN: 
0x00093954:  d503201f  nop      

----------------
IN: 
0x00093958:  d503201f  nop      

----------------
IN: 
0x0009395c:  d503201f  nop      

----------------
IN: 
0x00093960:  d503201f  nop      

----------------
IN: 
0x00093964:  d503201f  nop      

----------------
IN: 
0x00093968:  d503201f  nop      

----------------
IN: 
0x0009396c:  d503201f  nop      

----------------
IN: 
0x00093970:  d503201f  nop      

----------------
IN: 
0x00093974:  d503201f  nop      

----------------
IN: 
0x00093978:  d503201f  nop      

----------------
IN: 
0x0009397c:  d503201f  nop      

----------------
IN: 
0x00093980:  d503201f  nop      

----------------
IN: 
0x00093984:  d503201f  nop      

----------------
IN: 
0x00093988:  d503201f  nop      

----------------
IN: 
0x0009398c:  d503201f  nop      

----------------
IN: 
0x00093990:  d503201f  nop      

----------------
IN: 
0x00093994:  d503201f  nop      

----------------
IN: 
0x00093998:  d503201f  nop      

----------------
IN: 
0x0009399c:  d503201f  nop      

----------------
IN: 
0x000939a0:  d503201f  nop      

----------------
IN: 
0x000939a4:  d503201f  nop      

----------------
IN: 
0x000939a8:  d503201f  nop      

----------------
IN: 
0x000939ac:  d503201f  nop      

----------------
IN: 
0x000939b0:  d503201f  nop      

----------------
IN: 
0x000939b4:  d503201f  nop      

----------------
IN: 
0x000939b8:  d503201f  nop      

----------------
IN: 
0x000939bc:  d503201f  nop      

----------------
IN: 
0x000939c0:  d503201f  nop      

----------------
IN: 
0x000939c4:  d503201f  nop      

----------------
IN: 
0x000939c8:  d503201f  nop      

----------------
IN: 
0x000939cc:  d503201f  nop      

----------------
IN: 
0x000939d0:  d503201f  nop      

----------------
IN: 
0x000939d4:  d503201f  nop      

----------------
IN: 
0x000939d8:  d503201f  nop      

----------------
IN: 
0x000939dc:  d503201f  nop      

----------------
IN: 
0x000939e0:  d503201f  nop      

----------------
IN: 
0x000939e4:  9400002b  bl       #0x93a90

----------------
IN: 
0x000939e8:  085f7e68  ldxrb    w8, [x19]

----------------
IN: 
0x000939ec:  35fff208  cbnz     w8, #0x9382c

----------------
IN: 
0x000939f0:  17ffff92  b        #0x93838

Taking exception 5 [IRQ]
...from EL2 to EL2
...with ESR 0x0/0x0
...with ELR 0x93b04
...to EL2 PC 0x92280 PSTATE 0x3c9
----------------
IN: 
0x00092280:  d2800240  movz     x0, #0x12

----------------
IN: 
0x00092284:  17fffd61  b        #0x91808

----------------
IN: 
0x00091808:  d10403ff  sub      sp, sp, #0x100

----------------
IN: 
0x0009180c:  a90007e0  stp      x0, x1, [sp]

----------------
IN: 
0x00091810:  a9010fe2  stp      x2, x3, [sp, #0x10]

----------------
IN: 
0x00091814:  a90217e4  stp      x4, x5, [sp, #0x20]

----------------
IN: 
0x00091818:  a9031fe6  stp      x6, x7, [sp, #0x30]

----------------
IN: 
0x0009181c:  a90427e8  stp      x8, x9, [sp, #0x40]

----------------
IN: 
0x00091820:  a9052fea  stp      x10, x11, [sp, #0x50]

----------------
IN: 
0x00091824:  a90637ec  stp      x12, x13, [sp, #0x60]

----------------
IN: 
0x00091828:  a9073fee  stp      x14, x15, [sp, #0x70]

----------------
IN: 
0x0009182c:  a90847f0  stp      x16, x17, [sp, #0x80]

----------------
IN: 
0x00091830:  a9094ff2  stp      x18, x19, [sp, #0x90]

----------------
IN: 
0x00091834:  a90a57f4  stp      x20, x21, [sp, #0xa0]

----------------
IN: 
0x00091838:  a90b5ff6  stp      x22, x23, [sp, #0xb0]

----------------
IN: 
0x0009183c:  a90c67f8  stp      x24, x25, [sp, #0xc0]

----------------
IN: 
0x00091840:  a90d6ffa  stp      x26, x27, [sp, #0xd0]

----------------
IN: 
0x00091844:  a90e77fc  stp      x28, x29, [sp, #0xe0]

----------------
IN: 
0x00091848:  f9007bfe  str      x30, [sp, #0xf0]

----------------
IN: 
0x0009184c:  d53c400a  mrs      x10, spsr_el2

----------------
IN: 
0x00091850:  d53c402b  mrs      x11, elr_el2

----------------
IN: 
0x00091854:  a9102fea  stp      x10, x11, [sp, #0x100]

----------------
IN: 
0x00091858:  d53c5201  mrs      x1, esr_el2

----------------
IN: 
0x0009185c:  d53c4002  mrs      x2, spsr_el2

----------------
IN: 
0x00091860:  d53c6003  mrs      x3, far_el2

----------------
IN: 
0x00091864:  d53c4024  mrs      x4, elr_el2

----------------
IN: 
0x00091868:  9400078a  bl       #0x93690

----------------
IN: 
0x00093690:  b27c0008  orr      x8, x0, #0x10

----------------
IN: 
0x00093694:  f100491f  cmp      x8, #0x12

----------------
IN: 
0x00093698:  54000041  b.ne     #0x936a0

----------------
IN: 
0x0009369c:  14000003  b        #0x936a8

----------------
IN: 
0x000936a8:  f81e0ff4  str      x20, [sp, #0xffffffffffffffe0]!

----------------
IN: 
0x000936ac:  a9017bf3  stp      x19, x30, [sp, #0x10]

----------------
IN: 
0x000936b0:  940000e8  bl       #0x93a50

----------------
IN: 
0x00093a50:  d0000029  adrp     x9, #0x99000

----------------
IN: 
0x00093a54:  52800028  movz     w8, #0x1

----------------
IN: 
0x00093a58:  91040129  add      x9, x9, #0x100

----------------
IN: 
0x00093a5c:  089ffd28  stlrb    w8, [x9]

----------------
IN: 
0x00093a60:  d65f03c0  ret      

----------------
IN: 
0x000936b4:  b0000008  adrp     x8, #0x94000

----------------
IN: 
0x000936b8:  b0000009  adrp     x9, #0x94000

----------------
IN: 
0x000936bc:  b000000a  adrp     x10, #0x94000

----------------
IN: 
0x000936c0:  b000000b  adrp     x11, #0x94000

----------------
IN: 
0x000936c4:  f9441508  ldr      x8, [x8, #0x828]

----------------
IN: 
0x000936c8:  f9441929  ldr      x9, [x9, #0x830]

----------------
IN: 
0x000936cc:  f9441d4a  ldr      x10, [x10, #0x838]

----------------
IN: 
0x000936d0:  f947516b  ldr      x11, [x11, #0xea0]

----------------
IN: 
0x000936d4:  b9400108  ldr      w8, [x8]

----------------
IN: 
0x000936d8:  b940013f  ldr      wzr, [x9]

----------------
IN: 
0x000936dc:  b940015f  ldr      wzr, [x10]

----------------
IN: 
0x000936e0:  b9401169  ldr      w9, [x11, #0x10]

----------------
IN: 
0x000936e4:  6a080133  ands     w19, w9, w8

----------------
IN: 
0x000936e8:  540005c0  b.eq     #0x937a0

----------------
IN: 
0x000936ec:  37080253  tbnz     w19, #1, #0x93734

----------------
IN: 
0x000936f0:  37180273  tbnz     w19, #3, #0x9373c

----------------
IN: 
0x000936f4:  37400293  tbnz     w19, #8, #0x93744

----------------
IN: 
0x000936f8:  374802b3  tbnz     w19, #9, #0x9374c

----------------
IN: 
0x000936fc:  376002d3  tbnz     w19, #0xc, #0x93754

----------------
IN: 
0x00093700:  376802f3  tbnz     w19, #0xd, #0x9375c

----------------
IN: 
0x00093704:  37700313  tbnz     w19, #0xe, #0x93764

----------------
IN: 
0x00093708:  37780333  tbnz     w19, #0xf, #0x9376c

----------------
IN: 
0x0009370c:  36e80453  tbz      w19, #0x1d, #0x93794

----------------
IN: 
0x00093710:  b0000008  adrp     x8, #0x94000

----------------
IN: 
0x00093714:  f943e514  ldr      x20, [x8, #0x7c8]

----------------
IN: 
0x00093718:  b9400288  ldr      w8, [x20]

----------------
IN: 
0x0009371c:  370002e8  tbnz     w8, #0, #0x93778

----------------
IN: 
0x00093778:  97fff46e  bl       #0x90930

----------------
IN: 
0x00090930:  b0000020  adrp     x0, #0x95000

----------------
IN: 
0x00090934:  91000000  add      x0, x0, #0

----------------
IN: 
0x00090938:  14000002  b        #0x90940

----------------
IN: 
0x00090940:  d10343ff  sub      sp, sp, #0xd0

----------------
IN: 
0x00090944:  a90c7bf3  stp      x19, x30, [sp, #0xc0]

----------------
IN: 
0x00090948:  91004013  add      x19, x0, #0x10

----------------
IN: 
0x0009094c:  910183e8  add      x8, sp, #0x60

----------------
IN: 
0x00090950:  910163e1  add      x1, sp, #0x58

----------------
IN: 
0x00090954:  aa1303e0  mov      x0, x19

----------------
IN: 
0x00090958:  52800102  movz     w2, #0x8

----------------
IN: 
0x0009095c:  a90b53f5  stp      x21, x20, [sp, #0xb0]

----------------
IN: 
0x00090960:  f9002fff  str      xzr, [sp, #0x58]

----------------
IN: 
0x00090964:  940007bd  bl       #0x92858

----------------
IN: 
0x00092858:  f81b0ffa  str      x26, [sp, #0xffffffffffffffb0]!

----------------
IN: 
0x0009285c:  39400009  ldrb     w9, [x0]

----------------
IN: 
0x00092860:  a9047bf3  stp      x19, x30, [sp, #0x40]

----------------
IN: 
0x00092864:  aa0803f3  mov      x19, x8

----------------
IN: 
0x00092868:  a90163f9  stp      x25, x24, [sp, #0x10]

----------------
IN: 
0x0009286c:  a9025bf7  stp      x23, x22, [sp, #0x20]

----------------
IN: 
0x00092870:  a90353f5  stp      x21, x20, [sp, #0x30]

----------------
IN: 
0x00092874:  34000429  cbz      w9, #0x928f8

----------------
IN: 
0x00092878:  aa0203f4  mov      x20, x2

----------------
IN: 
0x0009287c:  b40004c2  cbz      x2, #0x92914

----------------
IN: 
0x00092880:  d0000008  adrp     x8, #0x94000

----------------
IN: 
0x00092884:  d0000009  adrp     x9, #0x94000

----------------
IN: 
0x00092888:  aa0103f5  mov      x21, x1

----------------
IN: 
0x0009288c:  aa1f03f7  mov      x23, xzr

----------------
IN: 
0x00092890:  52800156  movz     w22, #0xa

----------------
IN: 
0x00092894:  f9434118  ldr      x24, [x8, #0x680]

----------------
IN: 
0x00092898:  f9434539  ldr      x25, [x9, #0x688]

----------------
IN: 
0x0009289c:  b9400308  ldr      w8, [x24]

----------------
IN: 
0x000928a0:  37000088  tbnz     w8, #0, #0x928b0

----------------
IN: 
0x000928b0:  b9400328  ldr      w8, [x25]

----------------
IN: 
0x000928b4:  910006e9  add      x9, x23, #1

----------------
IN: 
0x000928b8:  eb14013f  cmp      x9, x20

----------------
IN: 
0x000928bc:  38376aa8  strb     w8, [x21, x23]

----------------
IN: 
0x000928c0:  aa0903f7  mov      x23, x9

----------------
IN: 
0x000928c4:  54000220  b.eq     #0x92908

----------------
IN: 
0x000928c8:  b9400308  ldr      w8, [x24]

----------------
IN: 
0x000928cc:  3707ff28  tbnz     w8, #0, #0x4000928b0

----------------
IN: 
0x00092908:  aa1f03e8  mov      x8, xzr

----------------
IN: 
0x0009290c:  f9000674  str      x20, [x19, #8]

----------------
IN: 
0x00092910:  1400000a  b        #0x92938

----------------
IN: 
0x00092938:  f9000268  str      x8, [x19]

----------------
IN: 
0x0009293c:  a9447bf3  ldp      x19, x30, [sp, #0x40]

----------------
IN: 
0x00092940:  a94353f5  ldp      x21, x20, [sp, #0x30]

----------------
IN: 
0x00092944:  a9425bf7  ldp      x23, x22, [sp, #0x20]

----------------
IN: 
0x00092948:  a94163f9  ldp      x25, x24, [sp, #0x10]

----------------
IN: 
0x0009294c:  f84507fa  ldr      x26, [sp], #0x50

----------------
IN: 
0x00092950:  d65f03c0  ret      

----------------
IN: 
0x00090968:  f94033e8  ldr      x8, [sp, #0x60]

----------------
IN: 
0x0009096c:  b40000a8  cbz      x8, #0x90980

----------------
IN: 
0x00090980:  f94037e8  ldr      x8, [sp, #0x68]

----------------
IN: 
0x00090984:  f100211f  cmp      x8, #8

----------------
IN: 
0x00090988:  54ffff41  b.ne     #0x90970

----------------
IN: 
0x0009098c:  f9402fe8  ldr      x8, [sp, #0x58]

----------------
IN: 
0x00090990:  d288a889  movz     x9, #0x4544

----------------
IN: 
0x00090994:  f2a88829  movk     x9, #0x4441, lsl #16

----------------
IN: 
0x00090998:  f2c8a849  movk     x9, #0x4542, lsl #32

----------------
IN: 
0x0009099c:  f2e8c8a9  movk     x9, #0x4645, lsl #48

----------------
IN: 
0x000909a0:  eb09011f  cmp      x8, x9

----------------
IN: 
0x000909a4:  54fffe61  b.ne     #0x90970

----------------
IN: 
0x000909a8:  90000021  adrp     x1, #0x94000

----------------
IN: 
0x000909ac:  aa1303e0  mov      x0, x19

----------------
IN: 
0x000909b0:  9110fc21  add      x1, x1, #0x43f

----------------
IN: 
0x000909b4:  52800062  movz     w2, #0x3

----------------
IN: 
0x000909b8:  94000784  bl       #0x927c8

----------------
IN: 
0x000909bc:  528000a2  movz     w2, #0x5

----------------
IN: 
0x000909c0:  910263e8  add      x8, sp, #0x98

----------------
IN: 
0x000909c4:  9101e3e1  add      x1, sp, #0x78

----------------
IN: 
0x000909c8:  aa1303e0  mov      x0, x19

----------------
IN: 
0x000909cc:  3901f3ff  strb     wzr, [sp, #0x7c]

----------------
IN: 
0x000909d0:  b9007bff  str      wzr, [sp, #0x78]

----------------
IN: 
0x000909d4:  940007e1  bl       #0x92958

----------------
IN: 
0x00092958:  f81b0ffa  str      x26, [sp, #0xffffffffffffffb0]!

----------------
IN: 
0x0009295c:  39400009  ldrb     w9, [x0]

----------------
IN: 
0x00092960:  a9047bf3  stp      x19, x30, [sp, #0x40]

----------------
IN: 
0x00092964:  aa0803f3  mov      x19, x8

----------------
IN: 
0x00092968:  a90163f9  stp      x25, x24, [sp, #0x10]

----------------
IN: 
0x0009296c:  a9025bf7  stp      x23, x22, [sp, #0x20]

----------------
IN: 
0x00092970:  a90353f5  stp      x21, x20, [sp, #0x30]

----------------
IN: 
0x00092974:  340003a9  cbz      w9, #0x929e8

----------------
IN: 
0x00092978:  aa0203f4  mov      x20, x2

----------------
IN: 
0x0009297c:  b40003e2  cbz      x2, #0x929f8

----------------
IN: 
0x00092980:  d0000008  adrp     x8, #0x94000

----------------
IN: 
0x00092984:  d0000009  adrp     x9, #0x94000

----------------
IN: 
0x00092988:  aa0103f5  mov      x21, x1

----------------
IN: 
0x0009298c:  aa1f03f7  mov      x23, xzr

----------------
IN: 
0x00092990:  52800156  movz     w22, #0xa

----------------
IN: 
0x00092994:  f9434118  ldr      x24, [x8, #0x680]

----------------
IN: 
0x00092998:  f9434539  ldr      x25, [x9, #0x688]

----------------
IN: 
0x0009299c:  b9400308  ldr      w8, [x24]

----------------
IN: 
0x000929a0:  910006fa  add      x26, x23, #1

----------------
IN: 
0x000929a4:  36000128  tbz      w8, #0, #0x929c8

----------------
IN: 
0x000929c8:  2a1603e0  mov      w0, w22

----------------
IN: 
0x000929cc:  9400014b  bl       #0x92ef8

----------------
IN: 
0x00092ef8:  34000080  cbz      w0, #0x92f08

----------------
IN: 
0x00092efc:  71000400  subs     w0, w0, #1

----------------
IN: 
0x00092f00:  d503201f  nop      

----------------
IN: 
0x00092f04:  54ffffc1  b.ne     #0x92efc

----------------
IN: 
0x00092f08:  d65f03c0  ret      

----------------
IN: 
0x000929d0:  b9400308  ldr      w8, [x24]

----------------
IN: 
0x000929d4:  3607ffa8  tbz      w8, #0, #0x4000929c8

