
./target/aarch64-ruspiro/release/kernel:     file format elf64-littleaarch64


Disassembly of section .text:

0000000000080000 <__boot>:
   80000:	d53800a0 	mrs	x0, mpidr_el1
   80004:	92400400 	and	x0, x0, #0x3
   80008:	58000701 	ldr	x1, 800e8 <.SwitchReturn+0x28>
   8000c:	58000722 	ldr	x2, 800f0 <.SwitchReturn+0x30>
   80010:	eb020021 	subs	x1, x1, x2
   80014:	9b007c22 	mul	x2, x1, x0
   80018:	58000701 	ldr	x1, 800f8 <.SwitchReturn+0x38>
   8001c:	cb22603f 	sub	sp, x1, x2
   80020:	b5000120 	cbnz	x0, 80044 <.bss_done>
   80024:	580006e0 	ldr	x0, 80100 <.SwitchReturn+0x40>
   80028:	58000702 	ldr	x2, 80108 <.SwitchReturn+0x48>
   8002c:	cb000042 	sub	x2, x2, x0
   80030:	d344fc42 	lsr	x2, x2, #4
   80034:	b4000082 	cbz	x2, 80044 <.bss_done>

0000000000080038 <.bss_zero_loop>:
   80038:	a8817c1f 	stp	xzr, xzr, [x0], #16
   8003c:	d1000442 	sub	x2, x2, #0x1
   80040:	b5ffffc2 	cbnz	x2, 80038 <.bss_zero_loop>

0000000000080044 <.bss_done>:
   80044:	9400000b 	bl	80070 <__switch_el2_to_el1>
   80048:	10023dc0 	adr	x0, 84800 <__ExceptionVectorTable>
   8004c:	d518c000 	msr	vbar_el1, x0
   80050:	d5381041 	mrs	x1, cpacr_el1
   80054:	d2a00600 	mov	x0, #0x300000              	// #3145728
   80058:	aa000020 	orr	x0, x1, x0
   8005c:	d5181040 	msr	cpacr_el1, x0
   80060:	d53800a0 	mrs	x0, mpidr_el1
   80064:	92400400 	and	x0, x0, #0x3
   80068:	14001556 	b	855c0 <__rust_entry>
   8006c:	14000e3d 	b	83960 <__hang>

0000000000080070 <__switch_el2_to_el1>:
   80070:	d5384240 	mrs	x0, currentel
   80074:	f100101f 	cmp	x0, #0x4
   80078:	54000240 	b.eq	800c0 <.SwitchReturn>  // b.none
   8007c:	d518101f 	msr	sctlr_el1, xzr
   80080:	d2b00000 	mov	x0, #0x80000000            	// #2147483648
   80084:	b27f0000 	orr	x0, x0, #0x2
   80088:	d51c1100 	msr	hcr_el2, x0
   8008c:	d53c1100 	mrs	x0, hcr_el2
   80090:	d53ce102 	mrs	x2, cnthctl_el2
   80094:	b2400442 	orr	x2, x2, #0x3
   80098:	d51ce102 	msr	cnthctl_el2, x2
   8009c:	d51ce07f 	msr	cntvoff_el2, xzr
   800a0:	d28078a2 	mov	x2, #0x3c5                 	// #965
   800a4:	d51c4002 	msr	spsr_el2, x2
   800a8:	d53c1100 	mrs	x0, hcr_el2
   800ac:	927af000 	and	x0, x0, #0xffffffffffffffc7
   800b0:	d51c1100 	msr	hcr_el2, x0
   800b4:	10000061 	adr	x1, 800c0 <.SwitchReturn>
   800b8:	d51c4021 	msr	elr_el2, x1
   800bc:	d69f03e0 	eret

00000000000800c0 <.SwitchReturn>:
   800c0:	58000281 	ldr	x1, 80110 <.SwitchReturn+0x50>
   800c4:	d53800a0 	mrs	x0, mpidr_el1
   800c8:	92400400 	and	x0, x0, #0x3
   800cc:	580000e2 	ldr	x2, 800e8 <.SwitchReturn+0x28>
   800d0:	58000103 	ldr	x3, 800f0 <.SwitchReturn+0x30>
   800d4:	eb030042 	subs	x2, x2, x3
   800d8:	9b007c42 	mul	x2, x2, x0
   800dc:	cb020020 	sub	x0, x1, x2
   800e0:	9100001f 	mov	sp, x0
   800e4:	d65f03c0 	ret
   800e8:	000c8640 	.inst	0x000c8640 ; undefined
   800ec:	00000000 	.inst	0x00000000 ; undefined
   800f0:	000b8640 	.inst	0x000b8640 ; undefined
   800f4:	00000000 	.inst	0x00000000 ; undefined
   800f8:	000b9640 	.inst	0x000b9640 ; undefined
   800fc:	00000000 	.inst	0x00000000 ; undefined
   80100:	00086f08 	.inst	0x00086f08 ; undefined
   80104:	00000000 	.inst	0x00000000 ; undefined
   80108:	00087060 	.inst	0x00087060 ; undefined
   8010c:	00000000 	.inst	0x00000000 ; undefined
   80110:	000c7640 	.inst	0x000c7640 ; undefined
	...

0000000000080120 <_ZN5alloc4sync12Arc$LT$T$GT$9drop_slow17h76db65d4af4c7553E>:
   80120:	a9bd5ffe 	stp	x30, x23, [sp, #-48]!
   80124:	a9024ff4 	stp	x20, x19, [sp, #32]
   80128:	f9400013 	ldr	x19, [x0]
   8012c:	a90157f6 	stp	x22, x21, [sp, #16]
   80130:	d5033fbf 	dmb	sy
   80134:	91004275 	add	x21, x19, #0x10
   80138:	91006276 	add	x22, x19, #0x18
   8013c:	c85ffec0 	ldaxr	x0, [x22]
   80140:	c808fedf 	stlxr	w8, xzr, [x22]
   80144:	35ffffc8 	cbnz	w8, 8013c <_ZN5alloc4sync12Arc$LT$T$GT$9drop_slow17h76db65d4af4c7553E+0x1c>
   80148:	d5033f9f 	dsb	sy
   8014c:	b4000520 	cbz	x0, 801f0 <_ZN5alloc4sync12Arc$LT$T$GT$9drop_slow17h76db65d4af4c7553E+0xd0>
   80150:	c85ffea8 	ldaxr	x8, [x21]
   80154:	eb00011f 	cmp	x8, x0
   80158:	540000e1 	b.ne	80174 <_ZN5alloc4sync12Arc$LT$T$GT$9drop_slow17h76db65d4af4c7553E+0x54>  // b.any
   8015c:	c808febf 	stlxr	w8, xzr, [x21]
   80160:	35ffff88 	cbnz	w8, 80150 <_ZN5alloc4sync12Arc$LT$T$GT$9drop_slow17h76db65d4af4c7553E+0x30>
   80164:	d5033f9f 	dsb	sy
   80168:	c8dffc08 	ldar	x8, [x0]
   8016c:	b50000c8 	cbnz	x8, 80184 <_ZN5alloc4sync12Arc$LT$T$GT$9drop_slow17h76db65d4af4c7553E+0x64>
   80170:	1400000c 	b	801a0 <_ZN5alloc4sync12Arc$LT$T$GT$9drop_slow17h76db65d4af4c7553E+0x80>
   80174:	d5033f5f 	clrex
   80178:	d5033f9f 	dsb	sy
   8017c:	c8dffc08 	ldar	x8, [x0]
   80180:	b4000108 	cbz	x8, 801a0 <_ZN5alloc4sync12Arc$LT$T$GT$9drop_slow17h76db65d4af4c7553E+0x80>
   80184:	c85ffec9 	ldaxr	x9, [x22]
   80188:	b5000089 	cbnz	x9, 80198 <_ZN5alloc4sync12Arc$LT$T$GT$9drop_slow17h76db65d4af4c7553E+0x78>
   8018c:	c809fec8 	stlxr	w9, x8, [x22]
   80190:	35ffffa9 	cbnz	w9, 80184 <_ZN5alloc4sync12Arc$LT$T$GT$9drop_slow17h76db65d4af4c7553E+0x64>
   80194:	14000002 	b	8019c <_ZN5alloc4sync12Arc$LT$T$GT$9drop_slow17h76db65d4af4c7553E+0x7c>
   80198:	d5033f5f 	clrex
   8019c:	d5033f9f 	dsb	sy
   801a0:	f9400414 	ldr	x20, [x0, #8]
   801a4:	b40004f4 	cbz	x20, 80240 <_ZN5alloc4sync12Arc$LT$T$GT$9drop_slow17h76db65d4af4c7553E+0x120>
   801a8:	f9400817 	ldr	x23, [x0, #16]
   801ac:	52800401 	mov	w1, #0x20                  	// #32
   801b0:	52800202 	mov	w2, #0x10                  	// #16
   801b4:	9400005b 	bl	80320 <__rust_dealloc>
   801b8:	f94002e8 	ldr	x8, [x23]
   801bc:	aa1403e0 	mov	x0, x20
   801c0:	d63f0100 	blr	x8
   801c4:	f94006e1 	ldr	x1, [x23, #8]
   801c8:	b4000081 	cbz	x1, 801d8 <_ZN5alloc4sync12Arc$LT$T$GT$9drop_slow17h76db65d4af4c7553E+0xb8>
   801cc:	f9400ae2 	ldr	x2, [x23, #16]
   801d0:	aa1403e0 	mov	x0, x20
   801d4:	94000053 	bl	80320 <__rust_dealloc>
   801d8:	d5033fbf 	dmb	sy
   801dc:	c85ffec0 	ldaxr	x0, [x22]
   801e0:	c808fedf 	stlxr	w8, xzr, [x22]
   801e4:	35ffffc8 	cbnz	w8, 801dc <_ZN5alloc4sync12Arc$LT$T$GT$9drop_slow17h76db65d4af4c7553E+0xbc>
   801e8:	d5033f9f 	dsb	sy
   801ec:	b5fffb20 	cbnz	x0, 80150 <_ZN5alloc4sync12Arc$LT$T$GT$9drop_slow17h76db65d4af4c7553E+0x30>
   801f0:	b100067f 	cmn	x19, #0x1
   801f4:	540001e0 	b.eq	80230 <_ZN5alloc4sync12Arc$LT$T$GT$9drop_slow17h76db65d4af4c7553E+0x110>  // b.none
   801f8:	91002268 	add	x8, x19, #0x8
   801fc:	c85f7d09 	ldxr	x9, [x8]
   80200:	f1000529 	subs	x9, x9, #0x1
   80204:	c80afd09 	stlxr	w10, x9, [x8]
   80208:	35ffffaa 	cbnz	w10, 801fc <_ZN5alloc4sync12Arc$LT$T$GT$9drop_slow17h76db65d4af4c7553E+0xdc>
   8020c:	54000121 	b.ne	80230 <_ZN5alloc4sync12Arc$LT$T$GT$9drop_slow17h76db65d4af4c7553E+0x110>  // b.any
   80210:	d50339bf 	dmb	ishld
   80214:	aa1303e0 	mov	x0, x19
   80218:	a9424ff4 	ldp	x20, x19, [sp, #32]
   8021c:	52800401 	mov	w1, #0x20                  	// #32
   80220:	52800102 	mov	w2, #0x8                   	// #8
   80224:	a94157f6 	ldp	x22, x21, [sp, #16]
   80228:	a8c35ffe 	ldp	x30, x23, [sp], #48
   8022c:	1400003d 	b	80320 <__rust_dealloc>
   80230:	a9424ff4 	ldp	x20, x19, [sp, #32]
   80234:	a94157f6 	ldp	x22, x21, [sp, #16]
   80238:	a8c35ffe 	ldp	x30, x23, [sp], #48
   8023c:	d65f03c0 	ret
   80240:	b0000020 	adrp	x0, 85000 <__exception_handler_default>
   80244:	f0000022 	adrp	x2, 87000 <_ZN17ruspiro_allocator6memory12FREE_BUCKETS17h862d300f99d834deE.llvm.11995692481347540951+0xc0>
   80248:	91221800 	add	x0, x0, #0x886
   8024c:	52800561 	mov	w1, #0x2b                  	// #43
   80250:	91018042 	add	x2, x2, #0x60
   80254:	94000817 	bl	822b0 <_ZN4core9panicking5panic17h1276bf0d71dbfb98E>
   80258:	d4200020 	brk	#0x1
   8025c:	00000000 	.inst	0x00000000 ; undefined

0000000000080260 <_ZN6kernel3run17h851f38d9324f6dafE>:
   80260:	350001e0 	cbnz	w0, 8029c <_ZN6kernel3run17h851f38d9324f6dafE+0x3c>
   80264:	f81f0ffe 	str	x30, [sp, #-16]!
   80268:	b0000028 	adrp	x8, 85000 <__exception_handler_default>
   8026c:	b0000029 	adrp	x9, 85000 <__exception_handler_default>
   80270:	52a0006a 	mov	w10, #0x30000               	// #196608
   80274:	5280544b 	mov	w11, #0x2a2                 	// #674
   80278:	52800800 	mov	w0, #0x40                  	// #64
   8027c:	aa1f03e1 	mov	x1, xzr
   80280:	f9445d08 	ldr	x8, [x8, #2232]
   80284:	f944a129 	ldr	x9, [x9, #2368]
   80288:	b900010a 	str	w10, [x8]
   8028c:	b900012b 	str	w11, [x9]
   80290:	9400004c 	bl	803c0 <_ZN17ruspiro_interrupt8activate17h2db9568096015147E>
   80294:	94000043 	bl	803a0 <_ZN17ruspiro_interrupt17enable_interrupts17hffb47f8754d6d291E>
   80298:	f84107fe 	ldr	x30, [sp], #16
   8029c:	14000000 	b	8029c <_ZN6kernel3run17h851f38d9324f6dafE+0x3c>

00000000000802a0 <__kernel_startup>:
   802a0:	71000c1f 	cmp	w0, #0x3
   802a4:	540000a8 	b.hi	802b8 <__kernel_startup+0x18>  // b.pmore
   802a8:	b0000028 	adrp	x8, 85000 <__exception_handler_default>
   802ac:	91260108 	add	x8, x8, #0x980
   802b0:	b860d900 	ldr	w0, [x8, w0, sxtw #2]
   802b4:	1400001f 	b	80330 <lit_debug_led>
   802b8:	d65f03c0 	ret
   802bc:	00000000 	.inst	0x00000000 ; undefined

00000000000802c0 <__kernel_run>:
   802c0:	97ffffe8 	bl	80260 <_ZN6kernel3run17h851f38d9324f6dafE>
   802c4:	d4200020 	brk	#0x1
	...

00000000000802d0 <__irq_handler__ArmTimer>:
   802d0:	a9bf03fe 	stp	x30, x0, [sp, #-16]!
   802d4:	b0000028 	adrp	x8, 85000 <__exception_handler_default>
   802d8:	52800029 	mov	w9, #0x1                   	// #1
   802dc:	f9447508 	ldr	x8, [x8, #2280]
   802e0:	b9000109 	str	w9, [x8]
   802e4:	f94007e8 	ldr	x8, [sp, #8]
   802e8:	b4000128 	cbz	x8, 8030c <__irq_handler__ArmTimer+0x3c>
   802ec:	c85f7d09 	ldxr	x9, [x8]
   802f0:	f1000529 	subs	x9, x9, #0x1
   802f4:	c80afd09 	stlxr	w10, x9, [x8]
   802f8:	35ffffaa 	cbnz	w10, 802ec <__irq_handler__ArmTimer+0x1c>
   802fc:	54000081 	b.ne	8030c <__irq_handler__ArmTimer+0x3c>  // b.any
   80300:	910023e0 	add	x0, sp, #0x8
   80304:	d50339bf 	dmb	ishld
   80308:	97ffff86 	bl	80120 <_ZN5alloc4sync12Arc$LT$T$GT$9drop_slow17h76db65d4af4c7553E>
   8030c:	f84107fe 	ldr	x30, [sp], #16
   80310:	d65f03c0 	ret
	...

0000000000080320 <__rust_dealloc>:
   80320:	14000288 	b	80d40 <__rg_dealloc>
	...

0000000000080330 <lit_debug_led>:
   80330:	529999a8 	mov	w8, #0xcccd                	// #52429
   80334:	52800149 	mov	w9, #0xa                   	// #10
   80338:	72b99988 	movk	w8, #0xcccc, lsl #16
   8033c:	52a7e40a 	mov	w10, #0x3f200000            	// #1059061760
   80340:	528000ec 	mov	w12, #0x7                   	// #7
   80344:	5280002d 	mov	w13, #0x1                   	// #1
   80348:	9ba87c08 	umull	x8, w0, w8
   8034c:	d363fd08 	lsr	x8, x8, #35
   80350:	d37ef50b 	lsl	x11, x8, #2
   80354:	1b098108 	msub	w8, w8, w9, w0
   80358:	b86a6969 	ldr	w9, [x11, x10]
   8035c:	0b080508 	add	w8, w8, w8, lsl #1
   80360:	1ac8218c 	lsl	w12, w12, w8
   80364:	0a2c0129 	bic	w9, w9, w12
   80368:	1ac821a8 	lsl	w8, w13, w8
   8036c:	2a0003ec 	mov	w12, w0
   80370:	2a080128 	orr	w8, w9, w8
   80374:	52800389 	mov	w9, #0x1c                  	// #28
   80378:	72a7e409 	movk	w9, #0x3f20, lsl #16
   8037c:	d345fd8c 	lsr	x12, x12, #5
   80380:	1ac021ad 	lsl	w13, w13, w0
   80384:	b82a6968 	str	w8, [x11, x10]
   80388:	b829698d 	str	w13, [x12, x9]
   8038c:	d65f03c0 	ret

0000000000080390 <_ZN4core3ptr44drop_in_place$LT$core..cell..BorrowError$GT$17h34d226d08f2836d5E>:
   80390:	d65f03c0 	ret
	...

00000000000803a0 <_ZN17ruspiro_interrupt17enable_interrupts17hffb47f8754d6d291E>:
   803a0:	d50342ff 	msr	daifclr, #0x2
   803a4:	d5033fdf 	isb
   803a8:	d50341ff 	msr	daifclr, #0x1
   803ac:	d5033fdf 	isb
   803b0:	d65f03c0 	ret
	...

00000000000803c0 <_ZN17ruspiro_interrupt8activate17h2db9568096015147E>:
   803c0:	d10103ff 	sub	sp, sp, #0x40
   803c4:	12001c08 	and	w8, w0, #0xff
   803c8:	f9000bfe 	str	x30, [sp, #16]
   803cc:	7100751f 	cmp	w8, #0x1d
   803d0:	a90257f6 	stp	x22, x21, [sp, #32]
   803d4:	a9034ff4 	stp	x20, x19, [sp, #48]
   803d8:	54000720 	b.eq	804bc <_ZN17ruspiro_interrupt8activate17h2db9568096015147E+0xfc>  // b.none
   803dc:	aa0103f4 	mov	x20, x1
   803e0:	2a0003f3 	mov	w19, w0
   803e4:	12001008 	and	w8, w0, #0x1f
   803e8:	910073e9 	add	x9, sp, #0x1c
   803ec:	b9001fe8 	str	w8, [sp, #28]
   803f0:	a90007e9 	stp	x9, x1, [sp]
   803f4:	373804e0 	tbnz	w0, #7, 80490 <_ZN17ruspiro_interrupt8activate17h2db9568096015147E+0xd0>
   803f8:	5280600b 	mov	w11, #0x300                 	// #768
   803fc:	f000002a 	adrp	x10, 87000 <_ZN17ruspiro_allocator6memory12FREE_BUCKETS17h862d300f99d834deE.llvm.11995692481347540951+0xc0>
   80400:	53051e69 	ubfx	w9, w19, #5, #3
   80404:	9104014a 	add	x10, x10, #0x100
   80408:	9bab292b 	umaddl	x11, w9, w11, x10
   8040c:	5280030c 	mov	w12, #0x18                  	// #24
   80410:	9bac2d16 	umaddl	x22, w8, w12, x11
   80414:	f8408ecb 	ldr	x11, [x22, #8]!
   80418:	b500060b 	cbnz	x11, 804d8 <_ZN17ruspiro_interrupt8activate17h2db9568096015147E+0x118>
   8041c:	5280600b 	mov	w11, #0x300                 	// #768
   80420:	2a0803e8 	mov	w8, w8
   80424:	5280030c 	mov	w12, #0x18                  	// #24
   80428:	9b0b2929 	madd	x9, x9, x11, x10
   8042c:	9b0c2515 	madd	x21, x8, x12, x9
   80430:	92800009 	mov	x9, #0xffffffffffffffff    	// #-1
   80434:	f90002c9 	str	x9, [x22]
   80438:	f8410ea8 	ldr	x8, [x21, #16]!
   8043c:	b4000128 	cbz	x8, 80460 <_ZN17ruspiro_interrupt8activate17h2db9568096015147E+0xa0>
   80440:	c85f7d09 	ldxr	x9, [x8]
   80444:	f1000529 	subs	x9, x9, #0x1
   80448:	c80afd09 	stlxr	w10, x9, [x8]
   8044c:	35ffffaa 	cbnz	w10, 80440 <_ZN17ruspiro_interrupt8activate17h2db9568096015147E+0x80>
   80450:	54000081 	b.ne	80460 <_ZN17ruspiro_interrupt8activate17h2db9568096015147E+0xa0>  // b.any
   80454:	aa1503e0 	mov	x0, x21
   80458:	d50339bf 	dmb	ishld
   8045c:	940001e9 	bl	80c00 <_ZN5alloc4sync12Arc$LT$T$GT$9drop_slow17hb5bb0a9b365095d0E>
   80460:	f94002c8 	ldr	x8, [x22]
   80464:	f90002b4 	str	x20, [x21]
   80468:	91000508 	add	x8, x8, #0x1
   8046c:	f90002c8 	str	x8, [x22]
   80470:	2a1303e0 	mov	w0, w19
   80474:	94000127 	bl	80910 <_ZN17ruspiro_interrupt9interface8activate17h19c53e70a7655767E>
   80478:	d5033fbf 	dmb	sy
   8047c:	f9400bfe 	ldr	x30, [sp, #16]
   80480:	a9434ff4 	ldp	x20, x19, [sp, #48]
   80484:	a94257f6 	ldp	x22, x21, [sp, #32]
   80488:	910103ff 	add	sp, sp, #0x40
   8048c:	d65f03c0 	ret
   80490:	b4ffff14 	cbz	x20, 80470 <_ZN17ruspiro_interrupt8activate17h2db9568096015147E+0xb0>
   80494:	910003e8 	mov	x8, sp
   80498:	b27d0100 	orr	x0, x8, #0x8
   8049c:	c85f7e88 	ldxr	x8, [x20]
   804a0:	f1000508 	subs	x8, x8, #0x1
   804a4:	c809fe88 	stlxr	w9, x8, [x20]
   804a8:	35ffffa9 	cbnz	w9, 8049c <_ZN17ruspiro_interrupt8activate17h2db9568096015147E+0xdc>
   804ac:	54fffe21 	b.ne	80470 <_ZN17ruspiro_interrupt8activate17h2db9568096015147E+0xb0>  // b.any
   804b0:	d50339bf 	dmb	ishld
   804b4:	940001d3 	bl	80c00 <_ZN5alloc4sync12Arc$LT$T$GT$9drop_slow17hb5bb0a9b365095d0E>
   804b8:	17ffffee 	b	80470 <_ZN17ruspiro_interrupt8activate17h2db9568096015147E+0xb0>
   804bc:	b0000020 	adrp	x0, 85000 <__exception_handler_default>
   804c0:	f0000022 	adrp	x2, 87000 <_ZN17ruspiro_allocator6memory12FREE_BUCKETS17h862d300f99d834deE.llvm.11995692481347540951+0xc0>
   804c4:	9127a000 	add	x0, x0, #0x9e8
   804c8:	528006a1 	mov	w1, #0x35                  	// #53
   804cc:	9102e042 	add	x2, x2, #0xb8
   804d0:	94000778 	bl	822b0 <_ZN4core9panicking5panic17h1276bf0d71dbfb98E>
   804d4:	d4200020 	brk	#0x1
   804d8:	b0000020 	adrp	x0, 85000 <__exception_handler_default>
   804dc:	f0000023 	adrp	x3, 87000 <_ZN17ruspiro_allocator6memory12FREE_BUCKETS17h862d300f99d834deE.llvm.11995692481347540951+0xc0>
   804e0:	f0000024 	adrp	x4, 87000 <_ZN17ruspiro_allocator6memory12FREE_BUCKETS17h862d300f99d834deE.llvm.11995692481347540951+0xc0>
   804e4:	9126c000 	add	x0, x0, #0x9b0
   804e8:	91026063 	add	x3, x3, #0x98
   804ec:	91034084 	add	x4, x4, #0xd0
   804f0:	910063e2 	add	x2, sp, #0x18
   804f4:	52800201 	mov	w1, #0x10                  	// #16
   804f8:	940005d6 	bl	81c50 <_ZN4core6result13unwrap_failed17hc96e1f395f9c9207E>
   804fc:	d4200020 	brk	#0x1

0000000000080500 <__isr_default>:
   80500:	d10243ff 	sub	sp, sp, #0x90
   80504:	b0000028 	adrp	x8, 85000 <__exception_handler_default>
   80508:	b0000029 	adrp	x9, 85000 <__exception_handler_default>
   8050c:	b000002a 	adrp	x10, 85000 <__exception_handler_default>
   80510:	b000002b 	adrp	x11, 85000 <__exception_handler_default>
   80514:	b000002c 	adrp	x12, 85000 <__exception_handler_default>
   80518:	b000002d 	adrp	x13, 85000 <__exception_handler_default>
   8051c:	f9446908 	ldr	x8, [x8, #2256]
   80520:	f944bd29 	ldr	x9, [x9, #2424]
   80524:	f9446d4a 	ldr	x10, [x10, #2264]
   80528:	f944a56b 	ldr	x11, [x11, #2376]
   8052c:	f944858c 	ldr	x12, [x12, #2312]
   80530:	a9037bfd 	stp	x29, x30, [sp, #48]
   80534:	a9046ffc 	stp	x28, x27, [sp, #64]
   80538:	a90567fa 	stp	x26, x25, [sp, #80]
   8053c:	a9065ff8 	stp	x24, x23, [sp, #96]
   80540:	a90757f6 	stp	x22, x21, [sp, #112]
   80544:	a9084ff4 	stp	x20, x19, [sp, #128]
   80548:	f0000033 	adrp	x19, 87000 <_ZN17ruspiro_allocator6memory12FREE_BUCKETS17h862d300f99d834deE.llvm.11995692481347540951+0xc0>
   8054c:	b9400108 	ldr	w8, [x8]
   80550:	91040273 	add	x19, x19, #0x100
   80554:	b9400129 	ldr	w9, [x9]
   80558:	b9400154 	ldr	w20, [x10]
   8055c:	b000002a 	adrp	x10, 85000 <__exception_handler_default>
   80560:	b9400175 	ldr	w21, [x11]
   80564:	b000002b 	adrp	x11, 85000 <__exception_handler_default>
   80568:	b940019c 	ldr	w28, [x12]
   8056c:	b000002c 	adrp	x12, 85000 <__exception_handler_default>
   80570:	f9447dad 	ldr	x13, [x13, #2296]
   80574:	f944794a 	ldr	x10, [x10, #2288]
   80578:	f9448d6b 	ldr	x11, [x11, #2328]
   8057c:	f9449d8c 	ldr	x12, [x12, #2360]
   80580:	b94001bd 	ldr	w29, [x13]
   80584:	b000002d 	adrp	x13, 85000 <__exception_handler_default>
   80588:	b940014f 	ldr	w15, [x10]
   8058c:	b940017b 	ldr	w27, [x11]
   80590:	b940018e 	ldr	w14, [x12]
   80594:	f94495ad 	ldr	x13, [x13, #2344]
   80598:	b90017ee 	str	w14, [sp, #20]
   8059c:	b94001ae 	ldr	w14, [x13]
   805a0:	b940014a 	ldr	w10, [x10]
   805a4:	2901abef 	stp	w15, w10, [sp, #12]
   805a8:	b940016a 	ldr	w10, [x11]
   805ac:	29032bee 	stp	w14, w10, [sp, #24]
   805b0:	b940018b 	ldr	w11, [x12]
   805b4:	b94001aa 	ldr	w10, [x13]
   805b8:	29042beb 	stp	w11, w10, [sp, #32]
   805bc:	6a08012a 	ands	w10, w9, w8
   805c0:	540004c0 	b.eq	80658 <__isr_default+0x158>  // b.none
   805c4:	5ac00148 	rbit	w8, w10
   805c8:	52800316 	mov	w22, #0x18                  	// #24
   805cc:	5ac01108 	clz	w8, w8
   805d0:	b27ff7eb 	mov	x11, #0x7ffffffffffffffe    	// #9223372036854775806
   805d4:	9bb64d17 	umaddl	x23, w8, w22, x19
   805d8:	f8408ee9 	ldr	x9, [x23, #8]!
   805dc:	eb0b013f 	cmp	x9, x11
   805e0:	54001568 	b.hi	8088c <__isr_default+0x38c>  // b.pmore
   805e4:	52800038 	mov	w24, #0x1                   	// #1
   805e8:	92f0001a 	mov	x26, #0x7fffffffffffffff    	// #9223372036854775807
   805ec:	1ac8230b 	lsl	w11, w24, w8
   805f0:	0a2b0159 	bic	w25, w10, w11
   805f4:	9b164d08 	madd	x8, x8, x22, x19
   805f8:	91000529 	add	x9, x9, #0x1
   805fc:	f90002e9 	str	x9, [x23]
   80600:	f9400900 	ldr	x0, [x8, #16]
   80604:	f9400108 	ldr	x8, [x8]
   80608:	b40000c0 	cbz	x0, 80620 <__isr_default+0x120>
   8060c:	c85f7c09 	ldxr	x9, [x0]
   80610:	9100052a 	add	x10, x9, #0x1
   80614:	c80b7c0a 	stxr	w11, x10, [x0]
   80618:	35ffffab 	cbnz	w11, 8060c <__isr_default+0x10c>
   8061c:	b7f815c9 	tbnz	x9, #63, 808d4 <__isr_default+0x3d4>
   80620:	d63f0100 	blr	x8
   80624:	f94002e8 	ldr	x8, [x23]
   80628:	d1000508 	sub	x8, x8, #0x1
   8062c:	f90002e8 	str	x8, [x23]
   80630:	34000159 	cbz	w25, 80658 <__isr_default+0x158>
   80634:	5ac00328 	rbit	w8, w25
   80638:	5ac01108 	clz	w8, w8
   8063c:	9bb64d17 	umaddl	x23, w8, w22, x19
   80640:	1ac8230a 	lsl	w10, w24, w8
   80644:	0a2a0339 	bic	w25, w25, w10
   80648:	f8408ee9 	ldr	x9, [x23, #8]!
   8064c:	eb1a013f 	cmp	x9, x26
   80650:	54fffd23 	b.cc	805f4 <__isr_default+0xf4>  // b.lo, b.ul, b.last
   80654:	1400008e 	b	8088c <__isr_default+0x38c>
   80658:	0a1402aa 	and	w10, w21, w20
   8065c:	3400050a 	cbz	w10, 806fc <__isr_default+0x1fc>
   80660:	5ac00148 	rbit	w8, w10
   80664:	52800314 	mov	w20, #0x18                  	// #24
   80668:	5ac01108 	clz	w8, w8
   8066c:	b27ff7ec 	mov	x12, #0x7ffffffffffffffe    	// #9223372036854775806
   80670:	9bb44d0b 	umaddl	x11, w8, w20, x19
   80674:	f9418569 	ldr	x9, [x11, #776]
   80678:	eb0c013f 	cmp	x9, x12
   8067c:	54001088 	b.hi	8088c <__isr_default+0x38c>  // b.pmore
   80680:	52800035 	mov	w21, #0x1                   	// #1
   80684:	910c2178 	add	x24, x11, #0x308
   80688:	1ac822ab 	lsl	w11, w21, w8
   8068c:	0a2b0156 	bic	w22, w10, w11
   80690:	92f00017 	mov	x23, #0x7fffffffffffffff    	// #9223372036854775807
   80694:	9b144d08 	madd	x8, x8, x20, x19
   80698:	91000529 	add	x9, x9, #0x1
   8069c:	f9000309 	str	x9, [x24]
   806a0:	f9418900 	ldr	x0, [x8, #784]
   806a4:	f9418108 	ldr	x8, [x8, #768]
   806a8:	b40000c0 	cbz	x0, 806c0 <__isr_default+0x1c0>
   806ac:	c85f7c09 	ldxr	x9, [x0]
   806b0:	9100052a 	add	x10, x9, #0x1
   806b4:	c80b7c0a 	stxr	w11, x10, [x0]
   806b8:	35ffffab 	cbnz	w11, 806ac <__isr_default+0x1ac>
   806bc:	b7f810c9 	tbnz	x9, #63, 808d4 <__isr_default+0x3d4>
   806c0:	d63f0100 	blr	x8
   806c4:	f9400308 	ldr	x8, [x24]
   806c8:	d1000508 	sub	x8, x8, #0x1
   806cc:	f9000308 	str	x8, [x24]
   806d0:	34000176 	cbz	w22, 806fc <__isr_default+0x1fc>
   806d4:	5ac002c8 	rbit	w8, w22
   806d8:	5ac01108 	clz	w8, w8
   806dc:	9bb44d0a 	umaddl	x10, w8, w20, x19
   806e0:	1ac822a9 	lsl	w9, w21, w8
   806e4:	0a2902d6 	bic	w22, w22, w9
   806e8:	910c2158 	add	x24, x10, #0x308
   806ec:	f9418549 	ldr	x9, [x10, #776]
   806f0:	eb17013f 	cmp	x9, x23
   806f4:	54fffd03 	b.cc	80694 <__isr_default+0x194>  // b.lo, b.ul, b.last
   806f8:	14000065 	b	8088c <__isr_default+0x38c>
   806fc:	0a1c03aa 	and	w10, w29, w28
   80700:	3400050a 	cbz	w10, 807a0 <__isr_default+0x2a0>
   80704:	5ac00148 	rbit	w8, w10
   80708:	52800314 	mov	w20, #0x18                  	// #24
   8070c:	5ac01108 	clz	w8, w8
   80710:	b27ff7ec 	mov	x12, #0x7ffffffffffffffe    	// #9223372036854775806
   80714:	9bb44d0b 	umaddl	x11, w8, w20, x19
   80718:	f9430569 	ldr	x9, [x11, #1544]
   8071c:	eb0c013f 	cmp	x9, x12
   80720:	54000b68 	b.hi	8088c <__isr_default+0x38c>  // b.pmore
   80724:	52800035 	mov	w21, #0x1                   	// #1
   80728:	91182178 	add	x24, x11, #0x608
   8072c:	1ac822ab 	lsl	w11, w21, w8
   80730:	0a2b0156 	bic	w22, w10, w11
   80734:	92f00017 	mov	x23, #0x7fffffffffffffff    	// #9223372036854775807
   80738:	9b144d08 	madd	x8, x8, x20, x19
   8073c:	91000529 	add	x9, x9, #0x1
   80740:	f9000309 	str	x9, [x24]
   80744:	f9430900 	ldr	x0, [x8, #1552]
   80748:	f9430108 	ldr	x8, [x8, #1536]
   8074c:	b40000c0 	cbz	x0, 80764 <__isr_default+0x264>
   80750:	c85f7c09 	ldxr	x9, [x0]
   80754:	9100052a 	add	x10, x9, #0x1
   80758:	c80b7c0a 	stxr	w11, x10, [x0]
   8075c:	35ffffab 	cbnz	w11, 80750 <__isr_default+0x250>
   80760:	b7f80ba9 	tbnz	x9, #63, 808d4 <__isr_default+0x3d4>
   80764:	d63f0100 	blr	x8
   80768:	f9400308 	ldr	x8, [x24]
   8076c:	d1000508 	sub	x8, x8, #0x1
   80770:	f9000308 	str	x8, [x24]
   80774:	34000176 	cbz	w22, 807a0 <__isr_default+0x2a0>
   80778:	5ac002c8 	rbit	w8, w22
   8077c:	5ac01108 	clz	w8, w8
   80780:	9bb44d0a 	umaddl	x10, w8, w20, x19
   80784:	1ac822a9 	lsl	w9, w21, w8
   80788:	0a2902d6 	bic	w22, w22, w9
   8078c:	91182158 	add	x24, x10, #0x608
   80790:	f9430549 	ldr	x9, [x10, #1544]
   80794:	eb17013f 	cmp	x9, x23
   80798:	54fffd03 	b.cc	80738 <__isr_default+0x238>  // b.lo, b.ul, b.last
   8079c:	1400003c 	b	8088c <__isr_default+0x38c>
   807a0:	2941a7e8 	ldp	w8, w9, [sp, #12]
   807a4:	b94017ea 	ldr	w10, [sp, #20]
   807a8:	2a080368 	orr	w8, w27, w8
   807ac:	53037d29 	lsr	w9, w9, #3
   807b0:	121c0129 	and	w9, w9, #0x10
   807b4:	2a0a0108 	orr	w8, w8, w10
   807b8:	b9401bea 	ldr	w10, [sp, #24]
   807bc:	2a0a0108 	orr	w8, w8, w10
   807c0:	12186d08 	and	w8, w8, #0xffffff0f
   807c4:	2a080128 	orr	w8, w9, w8
   807c8:	2943a7ea 	ldp	w10, w9, [sp, #28]
   807cc:	53027d4a 	lsr	w10, w10, #2
   807d0:	121b014a 	and	w10, w10, #0x20
   807d4:	53017d29 	lsr	w9, w9, #1
   807d8:	2a0a0108 	orr	w8, w8, w10
   807dc:	121a0129 	and	w9, w9, #0x40
   807e0:	2a090108 	orr	w8, w8, w9
   807e4:	b94027e9 	ldr	w9, [sp, #36]
   807e8:	12190129 	and	w9, w9, #0x80
   807ec:	2a09010a 	orr	w10, w8, w9
   807f0:	3400062a 	cbz	w10, 808b4 <__isr_default+0x3b4>
   807f4:	5ac00148 	rbit	w8, w10
   807f8:	52800314 	mov	w20, #0x18                  	// #24
   807fc:	5ac01108 	clz	w8, w8
   80800:	b27ff7ec 	mov	x12, #0x7ffffffffffffffe    	// #9223372036854775806
   80804:	9bb44d0b 	umaddl	x11, w8, w20, x19
   80808:	f9448569 	ldr	x9, [x11, #2312]
   8080c:	eb0c013f 	cmp	x9, x12
   80810:	540003e8 	b.hi	8088c <__isr_default+0x38c>  // b.pmore
   80814:	52800035 	mov	w21, #0x1                   	// #1
   80818:	91242178 	add	x24, x11, #0x908
   8081c:	1ac822ab 	lsl	w11, w21, w8
   80820:	0a2b0156 	bic	w22, w10, w11
   80824:	92f00017 	mov	x23, #0x7fffffffffffffff    	// #9223372036854775807
   80828:	9b144d08 	madd	x8, x8, x20, x19
   8082c:	91000529 	add	x9, x9, #0x1
   80830:	f9000309 	str	x9, [x24]
   80834:	f9448900 	ldr	x0, [x8, #2320]
   80838:	f9448108 	ldr	x8, [x8, #2304]
   8083c:	b40000c0 	cbz	x0, 80854 <__isr_default+0x354>
   80840:	c85f7c09 	ldxr	x9, [x0]
   80844:	9100052a 	add	x10, x9, #0x1
   80848:	c80b7c0a 	stxr	w11, x10, [x0]
   8084c:	35ffffab 	cbnz	w11, 80840 <__isr_default+0x340>
   80850:	b7f80429 	tbnz	x9, #63, 808d4 <__isr_default+0x3d4>
   80854:	d63f0100 	blr	x8
   80858:	f9400308 	ldr	x8, [x24]
   8085c:	d1000508 	sub	x8, x8, #0x1
   80860:	f9000308 	str	x8, [x24]
   80864:	34000296 	cbz	w22, 808b4 <__isr_default+0x3b4>
   80868:	5ac002c8 	rbit	w8, w22
   8086c:	5ac01108 	clz	w8, w8
   80870:	9bb44d0a 	umaddl	x10, w8, w20, x19
   80874:	1ac822a9 	lsl	w9, w21, w8
   80878:	0a2902d6 	bic	w22, w22, w9
   8087c:	91242158 	add	x24, x10, #0x908
   80880:	f9448549 	ldr	x9, [x10, #2312]
   80884:	eb17013f 	cmp	x9, x23
   80888:	54fffd03 	b.cc	80828 <__isr_default+0x328>  // b.lo, b.ul, b.last
   8088c:	b0000020 	adrp	x0, 85000 <__exception_handler_default>
   80890:	f0000023 	adrp	x3, 87000 <_ZN17ruspiro_allocator6memory12FREE_BUCKETS17h862d300f99d834deE.llvm.11995692481347540951+0xc0>
   80894:	f0000024 	adrp	x4, 87000 <_ZN17ruspiro_allocator6memory12FREE_BUCKETS17h862d300f99d834deE.llvm.11995692481347540951+0xc0>
   80898:	91274000 	add	x0, x0, #0x9d0
   8089c:	9101e063 	add	x3, x3, #0x78
   808a0:	9103a084 	add	x4, x4, #0xe8
   808a4:	9100a3e2 	add	x2, sp, #0x28
   808a8:	52800301 	mov	w1, #0x18                  	// #24
   808ac:	940004e9 	bl	81c50 <_ZN4core6result13unwrap_failed17hc96e1f395f9c9207E>
   808b0:	d4200020 	brk	#0x1
   808b4:	a9484ff4 	ldp	x20, x19, [sp, #128]
   808b8:	a94757f6 	ldp	x22, x21, [sp, #112]
   808bc:	a9465ff8 	ldp	x24, x23, [sp, #96]
   808c0:	a94567fa 	ldp	x26, x25, [sp, #80]
   808c4:	a9446ffc 	ldp	x28, x27, [sp, #64]
   808c8:	a9437bfd 	ldp	x29, x30, [sp, #48]
   808cc:	910243ff 	add	sp, sp, #0x90
   808d0:	d65f03c0 	ret
   808d4:	d4200020 	brk	#0x1
   808d8:	d4200020 	brk	#0x1
   808dc:	00000000 	.inst	0x00000000 ; undefined

00000000000808e0 <__irq_handler_Default>:
   808e0:	a9bf03fe 	stp	x30, x0, [sp, #-16]!
   808e4:	b4000120 	cbz	x0, 80908 <__irq_handler_Default+0x28>
   808e8:	c85f7c08 	ldxr	x8, [x0]
   808ec:	f1000508 	subs	x8, x8, #0x1
   808f0:	c809fc08 	stlxr	w9, x8, [x0]
   808f4:	35ffffa9 	cbnz	w9, 808e8 <__irq_handler_Default+0x8>
   808f8:	54000081 	b.ne	80908 <__irq_handler_Default+0x28>  // b.any
   808fc:	910023e0 	add	x0, sp, #0x8
   80900:	d50339bf 	dmb	ishld
   80904:	940000bf 	bl	80c00 <_ZN5alloc4sync12Arc$LT$T$GT$9drop_slow17hb5bb0a9b365095d0E>
   80908:	f84107fe 	ldr	x30, [sp], #16
   8090c:	d65f03c0 	ret

0000000000080910 <_ZN17ruspiro_interrupt9interface8activate17h19c53e70a7655767E>:
   80910:	b000002a 	adrp	x10, 85000 <__exception_handler_default>
   80914:	d3451c09 	ubfx	x9, x0, #5, #3
   80918:	9129f94a 	add	x10, x10, #0xa7e
   8091c:	52800028 	mov	w8, #0x1                   	// #1
   80920:	1ac02108 	lsl	w8, w8, w0
   80924:	1000008b 	adr	x11, 80934 <_ZN17ruspiro_interrupt9interface8activate17h19c53e70a7655767E+0x24>
   80928:	3869694c 	ldrb	w12, [x10, x9]
   8092c:	8b0c096b 	add	x11, x11, x12, lsl #2
   80930:	d61f0160 	br	x11
   80934:	b0000029 	adrp	x9, 85000 <__exception_handler_default>
   80938:	f944bd29 	ldr	x9, [x9, #2424]
   8093c:	b9000128 	str	w8, [x9]
   80940:	d65f03c0 	ret
   80944:	b0000029 	adrp	x9, 85000 <__exception_handler_default>
   80948:	f944a529 	ldr	x9, [x9, #2376]
   8094c:	b9000128 	str	w8, [x9]
   80950:	d65f03c0 	ret
   80954:	b0000029 	adrp	x9, 85000 <__exception_handler_default>
   80958:	f9447d29 	ldr	x9, [x9, #2296]
   8095c:	b9000128 	str	w8, [x9]
   80960:	d65f03c0 	ret
   80964:	12001808 	and	w8, w0, #0x7f
   80968:	51018108 	sub	w8, w8, #0x60
   8096c:	71002d1f 	cmp	w8, #0xb
   80970:	540004e8 	b.hi	80a0c <_ZN17ruspiro_interrupt9interface8activate17h19c53e70a7655767E+0xfc>  // b.pmore
   80974:	b0000029 	adrp	x9, 85000 <__exception_handler_default>
   80978:	912a0929 	add	x9, x9, #0xa82
   8097c:	1000008a 	adr	x10, 8098c <_ZN17ruspiro_interrupt9interface8activate17h19c53e70a7655767E+0x7c>
   80980:	3868692b 	ldrb	w11, [x9, x8]
   80984:	8b0b094a 	add	x10, x10, x11, lsl #2
   80988:	d61f0140 	br	x10
   8098c:	b0000028 	adrp	x8, 85000 <__exception_handler_default>
   80990:	f9446108 	ldr	x8, [x8, #2240]
   80994:	b9400109 	ldr	w9, [x8]
   80998:	32000129 	orr	w9, w9, #0x1
   8099c:	1400001b 	b	80a08 <_ZN17ruspiro_interrupt9interface8activate17h19c53e70a7655767E+0xf8>
   809a0:	b0000028 	adrp	x8, 85000 <__exception_handler_default>
   809a4:	f9446108 	ldr	x8, [x8, #2240]
   809a8:	b9400109 	ldr	w9, [x8]
   809ac:	321f0129 	orr	w9, w9, #0x2
   809b0:	14000016 	b	80a08 <_ZN17ruspiro_interrupt9interface8activate17h19c53e70a7655767E+0xf8>
   809b4:	b0000028 	adrp	x8, 85000 <__exception_handler_default>
   809b8:	f9446108 	ldr	x8, [x8, #2240]
   809bc:	b9400109 	ldr	w9, [x8]
   809c0:	321e0129 	orr	w9, w9, #0x4
   809c4:	14000011 	b	80a08 <_ZN17ruspiro_interrupt9interface8activate17h19c53e70a7655767E+0xf8>
   809c8:	b0000028 	adrp	x8, 85000 <__exception_handler_default>
   809cc:	f9446108 	ldr	x8, [x8, #2240]
   809d0:	1400000c 	b	80a00 <_ZN17ruspiro_interrupt9interface8activate17h19c53e70a7655767E+0xf0>
   809d4:	b0000028 	adrp	x8, 85000 <__exception_handler_default>
   809d8:	f944a908 	ldr	x8, [x8, #2384]
   809dc:	14000009 	b	80a00 <_ZN17ruspiro_interrupt9interface8activate17h19c53e70a7655767E+0xf0>
   809e0:	b0000028 	adrp	x8, 85000 <__exception_handler_default>
   809e4:	f9448108 	ldr	x8, [x8, #2304]
   809e8:	14000006 	b	80a00 <_ZN17ruspiro_interrupt9interface8activate17h19c53e70a7655767E+0xf0>
   809ec:	b0000028 	adrp	x8, 85000 <__exception_handler_default>
   809f0:	f944b108 	ldr	x8, [x8, #2400]
   809f4:	14000003 	b	80a00 <_ZN17ruspiro_interrupt9interface8activate17h19c53e70a7655767E+0xf0>
   809f8:	b0000028 	adrp	x8, 85000 <__exception_handler_default>
   809fc:	f9449908 	ldr	x8, [x8, #2352]
   80a00:	b9400109 	ldr	w9, [x8]
   80a04:	321d0129 	orr	w9, w9, #0x8
   80a08:	b9000109 	str	w9, [x8]
   80a0c:	d65f03c0 	ret
   80a10:	b0000028 	adrp	x8, 85000 <__exception_handler_default>
   80a14:	f944b908 	ldr	x8, [x8, #2416]
   80a18:	b9400109 	ldr	w9, [x8]
   80a1c:	32030129 	orr	w9, w9, #0x20000000
   80a20:	17fffffa 	b	80a08 <_ZN17ruspiro_interrupt9interface8activate17h19c53e70a7655767E+0xf8>
	...

0000000000080a30 <_ZN4core3ptr47drop_in_place$LT$core..cell..BorrowMutError$GT$17h8a103761656e6b5fE.llvm.4895383513194605257>:
   80a30:	d65f03c0 	ret
	...

0000000000080a40 <_ZN17ruspiro_interrupt10auxhandler11aux_handler17h73dfb633eb915ecfE>:
   80a40:	d100c3ff 	sub	sp, sp, #0x30
   80a44:	b0000028 	adrp	x8, 85000 <__exception_handler_default>
   80a48:	a9024ff4 	stp	x20, x19, [sp, #32]
   80a4c:	a900fbe0 	stp	x0, x30, [sp, #8]
   80a50:	aa0003f3 	mov	x19, x0
   80a54:	f9449114 	ldr	x20, [x8, #2336]
   80a58:	b9400288 	ldr	w8, [x20]
   80a5c:	360002a8 	tbz	w8, #0, 80ab0 <_ZN17ruspiro_interrupt10auxhandler11aux_handler17h73dfb633eb915ecfE+0x70>
   80a60:	d0000028 	adrp	x8, 86000 <_ZN4core7unicode12unicode_data15grapheme_extend7OFFSETS17h43cbc87acfaf4d34E.llvm.111400220230659385+0x98>
   80a64:	92f0000a 	mov	x10, #0x7fffffffffffffff    	// #9223372036854775807
   80a68:	f9478509 	ldr	x9, [x8, #3848]
   80a6c:	eb0a013f 	cmp	x9, x10
   80a70:	54000962 	b.cs	80b9c <_ZN17ruspiro_interrupt10auxhandler11aux_handler17h73dfb633eb915ecfE+0x15c>  // b.hs, b.nlast
   80a74:	d000002a 	adrp	x10, 86000 <_ZN4core7unicode12unicode_data15grapheme_extend7OFFSETS17h43cbc87acfaf4d34E.llvm.111400220230659385+0x98>
   80a78:	91000529 	add	x9, x9, #0x1
   80a7c:	913c214a 	add	x10, x10, #0xf08
   80a80:	f9400540 	ldr	x0, [x10, #8]
   80a84:	f9000149 	str	x9, [x10]
   80a88:	b40000e0 	cbz	x0, 80aa4 <_ZN17ruspiro_interrupt10auxhandler11aux_handler17h73dfb633eb915ecfE+0x64>
   80a8c:	c85f7c09 	ldxr	x9, [x0]
   80a90:	9100052a 	add	x10, x9, #0x1
   80a94:	c80b7c0a 	stxr	w11, x10, [x0]
   80a98:	35ffffab 	cbnz	w11, 80a8c <_ZN17ruspiro_interrupt10auxhandler11aux_handler17h73dfb633eb915ecfE+0x4c>
   80a9c:	b7f807c9 	tbnz	x9, #63, 80b94 <_ZN17ruspiro_interrupt10auxhandler11aux_handler17h73dfb633eb915ecfE+0x154>
   80aa0:	f9478509 	ldr	x9, [x8, #3848]
   80aa4:	d1000529 	sub	x9, x9, #0x1
   80aa8:	f9078509 	str	x9, [x8, #3848]
   80aac:	97ffff8d 	bl	808e0 <__irq_handler_Default>
   80ab0:	b9400288 	ldr	w8, [x20]
   80ab4:	360802a8 	tbz	w8, #1, 80b08 <_ZN17ruspiro_interrupt10auxhandler11aux_handler17h73dfb633eb915ecfE+0xc8>
   80ab8:	d0000028 	adrp	x8, 86000 <_ZN4core7unicode12unicode_data15grapheme_extend7OFFSETS17h43cbc87acfaf4d34E.llvm.111400220230659385+0x98>
   80abc:	92f0000a 	mov	x10, #0x7fffffffffffffff    	// #9223372036854775807
   80ac0:	f9478d09 	ldr	x9, [x8, #3864]
   80ac4:	eb0a013f 	cmp	x9, x10
   80ac8:	54000782 	b.cs	80bb8 <_ZN17ruspiro_interrupt10auxhandler11aux_handler17h73dfb633eb915ecfE+0x178>  // b.hs, b.nlast
   80acc:	d000002a 	adrp	x10, 86000 <_ZN4core7unicode12unicode_data15grapheme_extend7OFFSETS17h43cbc87acfaf4d34E.llvm.111400220230659385+0x98>
   80ad0:	91000529 	add	x9, x9, #0x1
   80ad4:	913c614a 	add	x10, x10, #0xf18
   80ad8:	f9400540 	ldr	x0, [x10, #8]
   80adc:	f9000149 	str	x9, [x10]
   80ae0:	b40000e0 	cbz	x0, 80afc <_ZN17ruspiro_interrupt10auxhandler11aux_handler17h73dfb633eb915ecfE+0xbc>
   80ae4:	c85f7c09 	ldxr	x9, [x0]
   80ae8:	9100052a 	add	x10, x9, #0x1
   80aec:	c80b7c0a 	stxr	w11, x10, [x0]
   80af0:	35ffffab 	cbnz	w11, 80ae4 <_ZN17ruspiro_interrupt10auxhandler11aux_handler17h73dfb633eb915ecfE+0xa4>
   80af4:	b7f80509 	tbnz	x9, #63, 80b94 <_ZN17ruspiro_interrupt10auxhandler11aux_handler17h73dfb633eb915ecfE+0x154>
   80af8:	f9478d09 	ldr	x9, [x8, #3864]
   80afc:	d1000529 	sub	x9, x9, #0x1
   80b00:	f9078d09 	str	x9, [x8, #3864]
   80b04:	97ffff77 	bl	808e0 <__irq_handler_Default>
   80b08:	b9400288 	ldr	w8, [x20]
   80b0c:	361002a8 	tbz	w8, #2, 80b60 <_ZN17ruspiro_interrupt10auxhandler11aux_handler17h73dfb633eb915ecfE+0x120>
   80b10:	d0000028 	adrp	x8, 86000 <_ZN4core7unicode12unicode_data15grapheme_extend7OFFSETS17h43cbc87acfaf4d34E.llvm.111400220230659385+0x98>
   80b14:	92f0000a 	mov	x10, #0x7fffffffffffffff    	// #9223372036854775807
   80b18:	f9479509 	ldr	x9, [x8, #3880]
   80b1c:	eb0a013f 	cmp	x9, x10
   80b20:	540005a2 	b.cs	80bd4 <_ZN17ruspiro_interrupt10auxhandler11aux_handler17h73dfb633eb915ecfE+0x194>  // b.hs, b.nlast
   80b24:	d000002a 	adrp	x10, 86000 <_ZN4core7unicode12unicode_data15grapheme_extend7OFFSETS17h43cbc87acfaf4d34E.llvm.111400220230659385+0x98>
   80b28:	91000529 	add	x9, x9, #0x1
   80b2c:	913ca14a 	add	x10, x10, #0xf28
   80b30:	f9400540 	ldr	x0, [x10, #8]
   80b34:	f9000149 	str	x9, [x10]
   80b38:	b40000e0 	cbz	x0, 80b54 <_ZN17ruspiro_interrupt10auxhandler11aux_handler17h73dfb633eb915ecfE+0x114>
   80b3c:	c85f7c09 	ldxr	x9, [x0]
   80b40:	9100052a 	add	x10, x9, #0x1
   80b44:	c80b7c0a 	stxr	w11, x10, [x0]
   80b48:	35ffffab 	cbnz	w11, 80b3c <_ZN17ruspiro_interrupt10auxhandler11aux_handler17h73dfb633eb915ecfE+0xfc>
   80b4c:	b7f80249 	tbnz	x9, #63, 80b94 <_ZN17ruspiro_interrupt10auxhandler11aux_handler17h73dfb633eb915ecfE+0x154>
   80b50:	f9479509 	ldr	x9, [x8, #3880]
   80b54:	d1000529 	sub	x9, x9, #0x1
   80b58:	f9079509 	str	x9, [x8, #3880]
   80b5c:	97ffff61 	bl	808e0 <__irq_handler_Default>
   80b60:	b4000133 	cbz	x19, 80b84 <_ZN17ruspiro_interrupt10auxhandler11aux_handler17h73dfb633eb915ecfE+0x144>
   80b64:	c85f7e68 	ldxr	x8, [x19]
   80b68:	f1000508 	subs	x8, x8, #0x1
   80b6c:	c809fe68 	stlxr	w9, x8, [x19]
   80b70:	35ffffa9 	cbnz	w9, 80b64 <_ZN17ruspiro_interrupt10auxhandler11aux_handler17h73dfb633eb915ecfE+0x124>
   80b74:	54000081 	b.ne	80b84 <_ZN17ruspiro_interrupt10auxhandler11aux_handler17h73dfb633eb915ecfE+0x144>  // b.any
   80b78:	910023e0 	add	x0, sp, #0x8
   80b7c:	d50339bf 	dmb	ishld
   80b80:	94000020 	bl	80c00 <_ZN5alloc4sync12Arc$LT$T$GT$9drop_slow17hb5bb0a9b365095d0E>
   80b84:	a9424ff4 	ldp	x20, x19, [sp, #32]
   80b88:	f9400bfe 	ldr	x30, [sp, #16]
   80b8c:	9100c3ff 	add	sp, sp, #0x30
   80b90:	d65f03c0 	ret
   80b94:	d4200020 	brk	#0x1
   80b98:	d4200020 	brk	#0x1
   80b9c:	b0000020 	adrp	x0, 85000 <__exception_handler_default>
   80ba0:	f0000023 	adrp	x3, 87000 <_ZN17ruspiro_allocator6memory12FREE_BUCKETS17h862d300f99d834deE.llvm.11995692481347540951+0xc0>
   80ba4:	f0000024 	adrp	x4, 87000 <_ZN17ruspiro_allocator6memory12FREE_BUCKETS17h862d300f99d834deE.llvm.11995692481347540951+0xc0>
   80ba8:	912a3800 	add	x0, x0, #0xa8e
   80bac:	91340063 	add	x3, x3, #0xd00
   80bb0:	91348084 	add	x4, x4, #0xd20
   80bb4:	1400000e 	b	80bec <_ZN17ruspiro_interrupt10auxhandler11aux_handler17h73dfb633eb915ecfE+0x1ac>
   80bb8:	b0000020 	adrp	x0, 85000 <__exception_handler_default>
   80bbc:	f0000023 	adrp	x3, 87000 <_ZN17ruspiro_allocator6memory12FREE_BUCKETS17h862d300f99d834deE.llvm.11995692481347540951+0xc0>
   80bc0:	f0000024 	adrp	x4, 87000 <_ZN17ruspiro_allocator6memory12FREE_BUCKETS17h862d300f99d834deE.llvm.11995692481347540951+0xc0>
   80bc4:	912a3800 	add	x0, x0, #0xa8e
   80bc8:	91340063 	add	x3, x3, #0xd00
   80bcc:	9134e084 	add	x4, x4, #0xd38
   80bd0:	14000007 	b	80bec <_ZN17ruspiro_interrupt10auxhandler11aux_handler17h73dfb633eb915ecfE+0x1ac>
   80bd4:	b0000020 	adrp	x0, 85000 <__exception_handler_default>
   80bd8:	f0000023 	adrp	x3, 87000 <_ZN17ruspiro_allocator6memory12FREE_BUCKETS17h862d300f99d834deE.llvm.11995692481347540951+0xc0>
   80bdc:	f0000024 	adrp	x4, 87000 <_ZN17ruspiro_allocator6memory12FREE_BUCKETS17h862d300f99d834deE.llvm.11995692481347540951+0xc0>
   80be0:	912a3800 	add	x0, x0, #0xa8e
   80be4:	91340063 	add	x3, x3, #0xd00
   80be8:	91354084 	add	x4, x4, #0xd50
   80bec:	910063e2 	add	x2, sp, #0x18
   80bf0:	52800301 	mov	w1, #0x18                  	// #24
   80bf4:	94000417 	bl	81c50 <_ZN4core6result13unwrap_failed17hc96e1f395f9c9207E>
   80bf8:	d4200020 	brk	#0x1
   80bfc:	00000000 	.inst	0x00000000 ; undefined

0000000000080c00 <_ZN5alloc4sync12Arc$LT$T$GT$9drop_slow17hb5bb0a9b365095d0E>:
   80c00:	a9bd5ffe 	stp	x30, x23, [sp, #-48]!
   80c04:	a9024ff4 	stp	x20, x19, [sp, #32]
   80c08:	f9400013 	ldr	x19, [x0]
   80c0c:	a90157f6 	stp	x22, x21, [sp, #16]
   80c10:	d5033fbf 	dmb	sy
   80c14:	91004275 	add	x21, x19, #0x10
   80c18:	91006276 	add	x22, x19, #0x18
   80c1c:	c85ffec0 	ldaxr	x0, [x22]
   80c20:	c808fedf 	stlxr	w8, xzr, [x22]
   80c24:	35ffffc8 	cbnz	w8, 80c1c <_ZN5alloc4sync12Arc$LT$T$GT$9drop_slow17hb5bb0a9b365095d0E+0x1c>
   80c28:	d5033f9f 	dsb	sy
   80c2c:	b4000520 	cbz	x0, 80cd0 <_ZN5alloc4sync12Arc$LT$T$GT$9drop_slow17hb5bb0a9b365095d0E+0xd0>
   80c30:	c85ffea8 	ldaxr	x8, [x21]
   80c34:	eb00011f 	cmp	x8, x0
   80c38:	540000e1 	b.ne	80c54 <_ZN5alloc4sync12Arc$LT$T$GT$9drop_slow17hb5bb0a9b365095d0E+0x54>  // b.any
   80c3c:	c808febf 	stlxr	w8, xzr, [x21]
   80c40:	35ffff88 	cbnz	w8, 80c30 <_ZN5alloc4sync12Arc$LT$T$GT$9drop_slow17hb5bb0a9b365095d0E+0x30>
   80c44:	d5033f9f 	dsb	sy
   80c48:	c8dffc08 	ldar	x8, [x0]
   80c4c:	b50000c8 	cbnz	x8, 80c64 <_ZN5alloc4sync12Arc$LT$T$GT$9drop_slow17hb5bb0a9b365095d0E+0x64>
   80c50:	1400000c 	b	80c80 <_ZN5alloc4sync12Arc$LT$T$GT$9drop_slow17hb5bb0a9b365095d0E+0x80>
   80c54:	d5033f5f 	clrex
   80c58:	d5033f9f 	dsb	sy
   80c5c:	c8dffc08 	ldar	x8, [x0]
   80c60:	b4000108 	cbz	x8, 80c80 <_ZN5alloc4sync12Arc$LT$T$GT$9drop_slow17hb5bb0a9b365095d0E+0x80>
   80c64:	c85ffec9 	ldaxr	x9, [x22]
   80c68:	b5000089 	cbnz	x9, 80c78 <_ZN5alloc4sync12Arc$LT$T$GT$9drop_slow17hb5bb0a9b365095d0E+0x78>
   80c6c:	c809fec8 	stlxr	w9, x8, [x22]
   80c70:	35ffffa9 	cbnz	w9, 80c64 <_ZN5alloc4sync12Arc$LT$T$GT$9drop_slow17hb5bb0a9b365095d0E+0x64>
   80c74:	14000002 	b	80c7c <_ZN5alloc4sync12Arc$LT$T$GT$9drop_slow17hb5bb0a9b365095d0E+0x7c>
   80c78:	d5033f5f 	clrex
   80c7c:	d5033f9f 	dsb	sy
   80c80:	f9400414 	ldr	x20, [x0, #8]
   80c84:	b40004f4 	cbz	x20, 80d20 <_ZN5alloc4sync12Arc$LT$T$GT$9drop_slow17hb5bb0a9b365095d0E+0x120>
   80c88:	f9400817 	ldr	x23, [x0, #16]
   80c8c:	52800401 	mov	w1, #0x20                  	// #32
   80c90:	52800202 	mov	w2, #0x10                  	// #16
   80c94:	97fffda3 	bl	80320 <__rust_dealloc>
   80c98:	f94002e8 	ldr	x8, [x23]
   80c9c:	aa1403e0 	mov	x0, x20
   80ca0:	d63f0100 	blr	x8
   80ca4:	f94006e1 	ldr	x1, [x23, #8]
   80ca8:	b4000081 	cbz	x1, 80cb8 <_ZN5alloc4sync12Arc$LT$T$GT$9drop_slow17hb5bb0a9b365095d0E+0xb8>
   80cac:	f9400ae2 	ldr	x2, [x23, #16]
   80cb0:	aa1403e0 	mov	x0, x20
   80cb4:	97fffd9b 	bl	80320 <__rust_dealloc>
   80cb8:	d5033fbf 	dmb	sy
   80cbc:	c85ffec0 	ldaxr	x0, [x22]
   80cc0:	c808fedf 	stlxr	w8, xzr, [x22]
   80cc4:	35ffffc8 	cbnz	w8, 80cbc <_ZN5alloc4sync12Arc$LT$T$GT$9drop_slow17hb5bb0a9b365095d0E+0xbc>
   80cc8:	d5033f9f 	dsb	sy
   80ccc:	b5fffb20 	cbnz	x0, 80c30 <_ZN5alloc4sync12Arc$LT$T$GT$9drop_slow17hb5bb0a9b365095d0E+0x30>
   80cd0:	b100067f 	cmn	x19, #0x1
   80cd4:	540001e0 	b.eq	80d10 <_ZN5alloc4sync12Arc$LT$T$GT$9drop_slow17hb5bb0a9b365095d0E+0x110>  // b.none
   80cd8:	91002268 	add	x8, x19, #0x8
   80cdc:	c85f7d09 	ldxr	x9, [x8]
   80ce0:	f1000529 	subs	x9, x9, #0x1
   80ce4:	c80afd09 	stlxr	w10, x9, [x8]
   80ce8:	35ffffaa 	cbnz	w10, 80cdc <_ZN5alloc4sync12Arc$LT$T$GT$9drop_slow17hb5bb0a9b365095d0E+0xdc>
   80cec:	54000121 	b.ne	80d10 <_ZN5alloc4sync12Arc$LT$T$GT$9drop_slow17hb5bb0a9b365095d0E+0x110>  // b.any
   80cf0:	d50339bf 	dmb	ishld
   80cf4:	aa1303e0 	mov	x0, x19
   80cf8:	a9424ff4 	ldp	x20, x19, [sp, #32]
   80cfc:	52800401 	mov	w1, #0x20                  	// #32
   80d00:	52800102 	mov	w2, #0x8                   	// #8
   80d04:	a94157f6 	ldp	x22, x21, [sp, #16]
   80d08:	a8c35ffe 	ldp	x30, x23, [sp], #48
   80d0c:	17fffd85 	b	80320 <__rust_dealloc>
   80d10:	a9424ff4 	ldp	x20, x19, [sp, #32]
   80d14:	a94157f6 	ldp	x22, x21, [sp, #16]
   80d18:	a8c35ffe 	ldp	x30, x23, [sp], #48
   80d1c:	d65f03c0 	ret
   80d20:	b0000020 	adrp	x0, 85000 <__exception_handler_default>
   80d24:	f0000022 	adrp	x2, 87000 <_ZN17ruspiro_allocator6memory12FREE_BUCKETS17h862d300f99d834deE.llvm.11995692481347540951+0xc0>
   80d28:	912dd000 	add	x0, x0, #0xb74
   80d2c:	52800561 	mov	w1, #0x2b                  	// #43
   80d30:	9135a042 	add	x2, x2, #0xd68
   80d34:	9400055f 	bl	822b0 <_ZN4core9panicking5panic17h1276bf0d71dbfb98E>
   80d38:	d4200020 	brk	#0x1
   80d3c:	00000000 	.inst	0x00000000 ; undefined

0000000000080d40 <__rg_dealloc>:
   80d40:	f85f8008 	ldur	x8, [x0, #-8]
   80d44:	5297dde9 	mov	w9, #0xbeef                	// #48879
   80d48:	72bbd5a9 	movk	w9, #0xdead, lsl #16
   80d4c:	39400d0a 	ldrb	w10, [x8, #3]
   80d50:	3940090b 	ldrb	w11, [x8, #2]
   80d54:	3940050c 	ldrb	w12, [x8, #1]
   80d58:	3940010d 	ldrb	w13, [x8]
   80d5c:	33181d4b 	bfi	w11, w10, #8, #8
   80d60:	33181d8d 	bfi	w13, w12, #8, #8
   80d64:	33103d6d 	bfi	w13, w11, #16, #16
   80d68:	6b0901bf 	cmp	w13, w9
   80d6c:	54000d21 	b.ne	80f10 <__rg_dealloc+0x1d0>  // b.any
   80d70:	aa0803e9 	mov	x9, x8
   80d74:	39000d1f 	strb	wzr, [x8, #3]
   80d78:	3900091f 	strb	wzr, [x8, #2]
   80d7c:	3900051f 	strb	wzr, [x8, #1]
   80d80:	3900011f 	strb	wzr, [x8]
   80d84:	3840cd2a 	ldrb	w10, [x9, #12]!
   80d88:	39400d2b 	ldrb	w11, [x9, #3]
   80d8c:	3940092c 	ldrb	w12, [x9, #2]
   80d90:	38404d2d 	ldrb	w13, [x9, #4]!
   80d94:	39400d2e 	ldrb	w14, [x9, #3]
   80d98:	39400929 	ldrb	w9, [x9, #2]
   80d9c:	3940450f 	ldrb	w15, [x8, #17]
   80da0:	b3781d6c 	bfi	x12, x11, #8, #8
   80da4:	33181dc9 	bfi	w9, w14, #8, #8
   80da8:	3940350e 	ldrb	w14, [x8, #13]
   80dac:	33181ded 	bfi	w13, w15, #8, #8
   80db0:	33103d2d 	bfi	w13, w9, #16, #16
   80db4:	b3781dca 	bfi	x10, x14, #8, #8
   80db8:	b3703d8a 	bfi	x10, x12, #16, #16
   80dbc:	b3607daa 	bfi	x10, x13, #32, #32
   80dc0:	8b080149 	add	x9, x10, x8
   80dc4:	d000002a 	adrp	x10, 86000 <_ZN4core7unicode12unicode_data15grapheme_extend7OFFSETS17h43cbc87acfaf4d34E.llvm.111400220230659385+0x98>
   80dc8:	913ce14a 	add	x10, x10, #0xf38
   80dcc:	c85ffd4b 	ldaxr	x11, [x10]
   80dd0:	eb09017f 	cmp	x11, x9
   80dd4:	54000081 	b.ne	80de4 <__rg_dealloc+0xa4>  // b.any
   80dd8:	c80bfd48 	stlxr	w11, x8, [x10]
   80ddc:	35ffff8b 	cbnz	w11, 80dcc <__rg_dealloc+0x8c>
   80de0:	d65f03c0 	ret
   80de4:	aa0803e9 	mov	x9, x8
   80de8:	d5033f5f 	clrex
   80dec:	38404d20 	ldrb	w0, [x9, #4]!
   80df0:	aa0903ea 	mov	x10, x9
   80df4:	39400d2e 	ldrb	w14, [x9, #3]
   80df8:	3940092f 	ldrb	w15, [x9, #2]
   80dfc:	3940152d 	ldrb	w13, [x9, #5]
   80e00:	38404d4b 	ldrb	w11, [x10, #4]!
   80e04:	39400d4c 	ldrb	w12, [x10, #3]
   80e08:	3940094a 	ldrb	w10, [x10, #2]
   80e0c:	b3781dcf 	bfi	x15, x14, #8, #8
   80e10:	39400529 	ldrb	w9, [x9, #1]
   80e14:	33181dab 	bfi	w11, w13, #8, #8
   80e18:	33181d8a 	bfi	w10, w12, #8, #8
   80e1c:	b3781d20 	bfi	x0, x9, #8, #8
   80e20:	33103d4b 	bfi	w11, w10, #16, #16
   80e24:	b3703de0 	bfi	x0, x15, #16, #16
   80e28:	b3607d60 	bfi	x0, x11, #32, #32
   80e2c:	f100441f 	cmp	x0, #0x11
   80e30:	540007e2 	b.cs	80f2c <__rg_dealloc+0x1ec>  // b.hs, b.nlast
   80e34:	d0000029 	adrp	x9, 86000 <_ZN4core7unicode12unicode_data15grapheme_extend7OFFSETS17h43cbc87acfaf4d34E.llvm.111400220230659385+0x98>
   80e38:	913d0129 	add	x9, x9, #0xf40
   80e3c:	8b001129 	add	x9, x9, x0, lsl #4
   80e40:	91002129 	add	x9, x9, #0x8
   80e44:	c8dffd29 	ldar	x9, [x9]
   80e48:	38024d1f 	strb	wzr, [x8, #36]!
   80e4c:	aa0803ea 	mov	x10, x8
   80e50:	3900151f 	strb	wzr, [x8, #5]
   80e54:	39000d1f 	strb	wzr, [x8, #3]
   80e58:	d368fd2b 	lsr	x11, x9, #40
   80e5c:	d358fd2c 	lsr	x12, x9, #24
   80e60:	381f8d49 	strb	w9, [x10, #-8]!
   80e64:	d350fd2d 	lsr	x13, x9, #16
   80e68:	d348fd2e 	lsr	x14, x9, #8
   80e6c:	381fd10b 	sturb	w11, [x8, #-3]
   80e70:	d360fd2b 	lsr	x11, x9, #32
   80e74:	39000d4c 	strb	w12, [x10, #3]
   80e78:	d378fd2c 	lsr	x12, x9, #56
   80e7c:	d370fd29 	lsr	x9, x9, #48
   80e80:	3900094d 	strb	w13, [x10, #2]
   80e84:	38004d4b 	strb	w11, [x10, #4]!
   80e88:	39000949 	strb	w9, [x10, #2]
   80e8c:	aa0803e9 	mov	x9, x8
   80e90:	39000d4c 	strb	w12, [x10, #3]
   80e94:	aa0803ea 	mov	x10, x8
   80e98:	381f910e 	sturb	w14, [x8, #-7]
   80e9c:	3900091f 	strb	wzr, [x8, #2]
   80ea0:	38004d3f 	strb	wzr, [x9, #4]!
   80ea4:	3900051f 	strb	wzr, [x8, #1]
   80ea8:	39000d3f 	strb	wzr, [x9, #3]
   80eac:	3900093f 	strb	wzr, [x9, #2]
   80eb0:	385e0d40 	ldrb	w0, [x10, #-32]!
   80eb4:	39400d49 	ldrb	w9, [x10, #3]
   80eb8:	3940094b 	ldrb	w11, [x10, #2]
   80ebc:	38404d4c 	ldrb	w12, [x10, #4]!
   80ec0:	39400d4d 	ldrb	w13, [x10, #3]
   80ec4:	3940094a 	ldrb	w10, [x10, #2]
   80ec8:	385e510e 	ldurb	w14, [x8, #-27]
   80ecc:	b3781d2b 	bfi	x11, x9, #8, #8
   80ed0:	385e1108 	ldurb	w8, [x8, #-31]
   80ed4:	33181daa 	bfi	w10, w13, #8, #8
   80ed8:	33181dcc 	bfi	w12, w14, #8, #8
   80edc:	b3781d00 	bfi	x0, x8, #8, #8
   80ee0:	33103d4c 	bfi	w12, w10, #16, #16
   80ee4:	b3703d60 	bfi	x0, x11, #16, #16
   80ee8:	b3607d80 	bfi	x0, x12, #32, #32
   80eec:	f100441f 	cmp	x0, #0x11
   80ef0:	54000282 	b.cs	80f40 <__rg_dealloc+0x200>  // b.hs, b.nlast
   80ef4:	b0000020 	adrp	x0, 85000 <__exception_handler_default>
   80ef8:	f0000022 	adrp	x2, 87000 <_ZN17ruspiro_allocator6memory12FREE_BUCKETS17h862d300f99d834deE.llvm.11995692481347540951+0xc0>
   80efc:	91305000 	add	x0, x0, #0xc14
   80f00:	52800681 	mov	w1, #0x34                  	// #52
   80f04:	91360042 	add	x2, x2, #0xd80
   80f08:	940004ea 	bl	822b0 <_ZN4core9panicking5panic17h1276bf0d71dbfb98E>
   80f0c:	d4200020 	brk	#0x1
   80f10:	b0000020 	adrp	x0, 85000 <__exception_handler_default>
   80f14:	f0000022 	adrp	x2, 87000 <_ZN17ruspiro_allocator6memory12FREE_BUCKETS17h862d300f99d834deE.llvm.11995692481347540951+0xc0>
   80f18:	9132b000 	add	x0, x0, #0xcac
   80f1c:	528005c1 	mov	w1, #0x2e                  	// #46
   80f20:	91366042 	add	x2, x2, #0xd98
   80f24:	940004e3 	bl	822b0 <_ZN4core9panicking5panic17h1276bf0d71dbfb98E>
   80f28:	d4200020 	brk	#0x1
   80f2c:	f0000022 	adrp	x2, 87000 <_ZN17ruspiro_allocator6memory12FREE_BUCKETS17h862d300f99d834deE.llvm.11995692481347540951+0xc0>
   80f30:	52800221 	mov	w1, #0x11                  	// #17
   80f34:	9136c042 	add	x2, x2, #0xdb0
   80f38:	940004ee 	bl	822f0 <_ZN4core9panicking18panic_bounds_check17h7e98c39e5d454fafE>
   80f3c:	d4200020 	brk	#0x1
   80f40:	f0000022 	adrp	x2, 87000 <_ZN17ruspiro_allocator6memory12FREE_BUCKETS17h862d300f99d834deE.llvm.11995692481347540951+0xc0>
   80f44:	52800221 	mov	w1, #0x11                  	// #17
   80f48:	91372042 	add	x2, x2, #0xdc8
   80f4c:	940004e9 	bl	822f0 <_ZN4core9panicking18panic_bounds_check17h7e98c39e5d454fafE>
   80f50:	d4200020 	brk	#0x1
	...

0000000000080f60 <_ZN4core3fmt3num51_$LT$impl$u20$core..fmt..Binary$u20$for$u20$i64$GT$3fmt17h427fbecc8e4c1936E>:
   80f60:	d10243ff 	sub	sp, sp, #0x90
   80f64:	f9400009 	ldr	x9, [x0]
   80f68:	aa1f03e8 	mov	x8, xzr
   80f6c:	910003ea 	mov	x10, sp
   80f70:	f90043fe 	str	x30, [sp, #128]
   80f74:	5280060b 	mov	w11, #0x30                  	// #48
   80f78:	d341fd2c 	lsr	x12, x9, #1
   80f7c:	3300012b 	bfxil	w11, w9, #0, #1
   80f80:	f100053f 	cmp	x9, #0x1
   80f84:	8b08014d 	add	x13, x10, x8
   80f88:	d1000508 	sub	x8, x8, #0x1
   80f8c:	aa0c03e9 	mov	x9, x12
   80f90:	3901fdab 	strb	w11, [x13, #127]
   80f94:	54ffff08 	b.hi	80f74 <_ZN4core3fmt3num51_$LT$impl$u20$core..fmt..Binary$u20$for$u20$i64$GT$3fmt17h427fbecc8e4c1936E+0x14>  // b.pmore
   80f98:	91020100 	add	x0, x8, #0x80
   80f9c:	f102041f 	cmp	x0, #0x81
   80fa0:	540001c2 	b.cs	80fd8 <_ZN4core3fmt3num51_$LT$impl$u20$core..fmt..Binary$u20$for$u20$i64$GT$3fmt17h427fbecc8e4c1936E+0x78>  // b.hs, b.nlast
   80fa4:	910003e9 	mov	x9, sp
   80fa8:	b0000022 	adrp	x2, 85000 <__exception_handler_default>
   80fac:	8b080129 	add	x9, x9, x8
   80fb0:	cb0803e5 	neg	x5, x8
   80fb4:	91020124 	add	x4, x9, #0x80
   80fb8:	91353442 	add	x2, x2, #0xd4d
   80fbc:	aa0103e0 	mov	x0, x1
   80fc0:	52800021 	mov	w1, #0x1                   	// #1
   80fc4:	52800043 	mov	w3, #0x2                   	// #2
   80fc8:	940005fa 	bl	827b0 <_ZN4core3fmt9Formatter12pad_integral17h4c381d3da2db2768E>
   80fcc:	f94043fe 	ldr	x30, [sp, #128]
   80fd0:	910243ff 	add	sp, sp, #0x90
   80fd4:	d65f03c0 	ret
   80fd8:	f0000022 	adrp	x2, 87000 <_ZN17ruspiro_allocator6memory12FREE_BUCKETS17h862d300f99d834deE.llvm.11995692481347540951+0xc0>
   80fdc:	52801001 	mov	w1, #0x80                  	// #128
   80fe0:	91378042 	add	x2, x2, #0xde0
   80fe4:	9400002b 	bl	81090 <_ZN4core5slice5index26slice_start_index_len_fail17h7120a3f80a76b06bE>
   80fe8:	d4200020 	brk	#0x1
   80fec:	00000000 	.inst	0x00000000 ; undefined

0000000000080ff0 <_ZN4core3fmt3num53_$LT$impl$u20$core..fmt..LowerHex$u20$for$u20$i64$GT$3fmt17h5b549b8f8f8626b6E>:
   80ff0:	d10243ff 	sub	sp, sp, #0x90
   80ff4:	f940000a 	ldr	x10, [x0]
   80ff8:	aa1f03e8 	mov	x8, xzr
   80ffc:	910003e9 	mov	x9, sp
   81000:	52800aeb 	mov	w11, #0x57                  	// #87
   81004:	5280060c 	mov	w12, #0x30                  	// #48
   81008:	f90043fe 	str	x30, [sp, #128]
   8100c:	12000d4d 	and	w13, w10, #0xf
   81010:	8b08012f 	add	x15, x9, x8
   81014:	710029bf 	cmp	w13, #0xa
   81018:	d1000508 	sub	x8, x8, #0x1
   8101c:	1a8b318e 	csel	w14, w12, w11, cc  // cc = lo, ul, last
   81020:	f1003d5f 	cmp	x10, #0xf
   81024:	0b0d01cd 	add	w13, w14, w13
   81028:	d344fd4a 	lsr	x10, x10, #4
   8102c:	3901fded 	strb	w13, [x15, #127]
   81030:	54fffee8 	b.hi	8100c <_ZN4core3fmt3num53_$LT$impl$u20$core..fmt..LowerHex$u20$for$u20$i64$GT$3fmt17h5b549b8f8f8626b6E+0x1c>  // b.pmore
   81034:	91020100 	add	x0, x8, #0x80
   81038:	f102041f 	cmp	x0, #0x81
   8103c:	540001c2 	b.cs	81074 <_ZN4core3fmt3num53_$LT$impl$u20$core..fmt..LowerHex$u20$for$u20$i64$GT$3fmt17h5b549b8f8f8626b6E+0x84>  // b.hs, b.nlast
   81040:	910003e9 	mov	x9, sp
   81044:	90000022 	adrp	x2, 85000 <__exception_handler_default>
   81048:	8b080129 	add	x9, x9, x8
   8104c:	cb0803e5 	neg	x5, x8
   81050:	91020124 	add	x4, x9, #0x80
   81054:	91352c42 	add	x2, x2, #0xd4b
   81058:	aa0103e0 	mov	x0, x1
   8105c:	52800021 	mov	w1, #0x1                   	// #1
   81060:	52800043 	mov	w3, #0x2                   	// #2
   81064:	940005d3 	bl	827b0 <_ZN4core3fmt9Formatter12pad_integral17h4c381d3da2db2768E>
   81068:	f94043fe 	ldr	x30, [sp, #128]
   8106c:	910243ff 	add	sp, sp, #0x90
   81070:	d65f03c0 	ret
   81074:	d0000022 	adrp	x2, 87000 <_ZN17ruspiro_allocator6memory12FREE_BUCKETS17h862d300f99d834deE.llvm.11995692481347540951+0xc0>
   81078:	52801001 	mov	w1, #0x80                  	// #128
   8107c:	91378042 	add	x2, x2, #0xde0
   81080:	94000004 	bl	81090 <_ZN4core5slice5index26slice_start_index_len_fail17h7120a3f80a76b06bE>
   81084:	d4200020 	brk	#0x1
	...

0000000000081090 <_ZN4core5slice5index26slice_start_index_len_fail17h7120a3f80a76b06bE>:
   81090:	d10183ff 	sub	sp, sp, #0x60
   81094:	b0000029 	adrp	x9, 86000 <_ZN4core7unicode12unicode_data15grapheme_extend7OFFSETS17h43cbc87acfaf4d34E.llvm.111400220230659385+0x98>
   81098:	910003e8 	mov	x8, sp
   8109c:	910023ea 	add	x10, sp, #0x8
   810a0:	f9476d29 	ldr	x9, [x9, #3800]
   810a4:	a90007e0 	stp	x0, x1, [sp]
   810a8:	910043e0 	add	x0, sp, #0x10
   810ac:	aa0203e1 	mov	x1, x2
   810b0:	a9027fff 	stp	xzr, xzr, [sp, #32]
   810b4:	a90427e8 	stp	x8, x9, [sp, #64]
   810b8:	52800048 	mov	w8, #0x2                   	// #2
   810bc:	a90527ea 	stp	x10, x9, [sp, #80]
   810c0:	d0000029 	adrp	x9, 87000 <_ZN17ruspiro_allocator6memory12FREE_BUCKETS17h862d300f99d834deE.llvm.11995692481347540951+0xc0>
   810c4:	9137e129 	add	x9, x9, #0xdf8
   810c8:	a90123e9 	stp	x9, x8, [sp, #16]
   810cc:	910103e9 	add	x9, sp, #0x40
   810d0:	a90323e9 	stp	x9, x8, [sp, #48]
   810d4:	9400049b 	bl	82340 <_ZN4core9panicking9panic_fmt17h2fb479caa573f9e3E>
   810d8:	d4200020 	brk	#0x1
   810dc:	00000000 	.inst	0x00000000 ; undefined

00000000000810e0 <_ZN4core5slice5index24slice_end_index_len_fail17hb9f0a64be91517a4E>:
   810e0:	d10183ff 	sub	sp, sp, #0x60
   810e4:	b0000029 	adrp	x9, 86000 <_ZN4core7unicode12unicode_data15grapheme_extend7OFFSETS17h43cbc87acfaf4d34E.llvm.111400220230659385+0x98>
   810e8:	910003e8 	mov	x8, sp
   810ec:	910023ea 	add	x10, sp, #0x8
   810f0:	f9476d29 	ldr	x9, [x9, #3800]
   810f4:	a90007e0 	stp	x0, x1, [sp]
   810f8:	910043e0 	add	x0, sp, #0x10
   810fc:	aa0203e1 	mov	x1, x2
   81100:	a9027fff 	stp	xzr, xzr, [sp, #32]
   81104:	a90427e8 	stp	x8, x9, [sp, #64]
   81108:	52800048 	mov	w8, #0x2                   	// #2
   8110c:	a90527ea 	stp	x10, x9, [sp, #80]
   81110:	d0000029 	adrp	x9, 87000 <_ZN17ruspiro_allocator6memory12FREE_BUCKETS17h862d300f99d834deE.llvm.11995692481347540951+0xc0>
   81114:	91386129 	add	x9, x9, #0xe18
   81118:	a90123e9 	stp	x9, x8, [sp, #16]
   8111c:	910103e9 	add	x9, sp, #0x40
   81120:	a90323e9 	stp	x9, x8, [sp, #48]
   81124:	94000487 	bl	82340 <_ZN4core9panicking9panic_fmt17h2fb479caa573f9e3E>
   81128:	d4200020 	brk	#0x1
   8112c:	00000000 	.inst	0x00000000 ; undefined

0000000000081130 <_ZN4core5slice5index22slice_index_order_fail17hb44310cbc3fa1d3fE>:
   81130:	d10183ff 	sub	sp, sp, #0x60
   81134:	b0000029 	adrp	x9, 86000 <_ZN4core7unicode12unicode_data15grapheme_extend7OFFSETS17h43cbc87acfaf4d34E.llvm.111400220230659385+0x98>
   81138:	910003e8 	mov	x8, sp
   8113c:	910023ea 	add	x10, sp, #0x8
   81140:	f9476d29 	ldr	x9, [x9, #3800]
   81144:	a90007e0 	stp	x0, x1, [sp]
   81148:	910043e0 	add	x0, sp, #0x10
   8114c:	aa0203e1 	mov	x1, x2
   81150:	a9027fff 	stp	xzr, xzr, [sp, #32]
   81154:	a90427e8 	stp	x8, x9, [sp, #64]
   81158:	52800048 	mov	w8, #0x2                   	// #2
   8115c:	a90527ea 	stp	x10, x9, [sp, #80]
   81160:	d0000029 	adrp	x9, 87000 <_ZN17ruspiro_allocator6memory12FREE_BUCKETS17h862d300f99d834deE.llvm.11995692481347540951+0xc0>
   81164:	9138e129 	add	x9, x9, #0xe38
   81168:	a90123e9 	stp	x9, x8, [sp, #16]
   8116c:	910103e9 	add	x9, sp, #0x40
   81170:	a90323e9 	stp	x9, x8, [sp, #48]
   81174:	94000473 	bl	82340 <_ZN4core9panicking9panic_fmt17h2fb479caa573f9e3E>
   81178:	d4200020 	brk	#0x1
   8117c:	00000000 	.inst	0x00000000 ; undefined

0000000000081180 <_ZN4core7unicode12unicode_data15grapheme_extend6lookup17h4c3fb151a65b2097E>:
   81180:	9000002a 	adrp	x10, 85000 <__exception_handler_default>
   81184:	aa1f03e8 	mov	x8, xzr
   81188:	528003ec 	mov	w12, #0x1f                  	// #31
   8118c:	528003eb 	mov	w11, #0x1f                  	// #31
   81190:	913bb14a 	add	x10, x10, #0xeec
   81194:	53155009 	lsl	w9, w0, #11
   81198:	14000004 	b	811a8 <_ZN4core7unicode12unicode_data15grapheme_extend6lookup17h4c3fb151a65b2097E+0x28>
   8119c:	91000588 	add	x8, x12, #0x1
   811a0:	eb08016c 	subs	x12, x11, x8
   811a4:	54000129 	b.ls	811c8 <_ZN4core7unicode12unicode_data15grapheme_extend6lookup17h4c3fb151a65b2097E+0x48>  // b.plast
   811a8:	8b4c050c 	add	x12, x8, x12, lsr #1
   811ac:	b86c794d 	ldr	w13, [x10, x12, lsl #2]
   811b0:	531551ad 	lsl	w13, w13, #11
   811b4:	6b0901bf 	cmp	w13, w9
   811b8:	54ffff23 	b.cc	8119c <_ZN4core7unicode12unicode_data15grapheme_extend6lookup17h4c3fb151a65b2097E+0x1c>  // b.lo, b.ul, b.last
   811bc:	aa0c03eb 	mov	x11, x12
   811c0:	54ffff01 	b.ne	811a0 <_ZN4core7unicode12unicode_data15grapheme_extend6lookup17h4c3fb151a65b2097E+0x20>  // b.any
   811c4:	91000588 	add	x8, x12, #0x1
   811c8:	f100791f 	cmp	x8, #0x1e
   811cc:	540006a8 	b.hi	812a0 <_ZN4core7unicode12unicode_data15grapheme_extend6lookup17h4c3fb151a65b2097E+0x120>  // b.pmore
   811d0:	f100791f 	cmp	x8, #0x1e
   811d4:	540001e1 	b.ne	81210 <_ZN4core7unicode12unicode_data15grapheme_extend6lookup17h4c3fb151a65b2097E+0x90>  // b.any
   811d8:	5280562b 	mov	w11, #0x2b1                 	// #689
   811dc:	f1000509 	subs	x9, x8, #0x1
   811e0:	54000223 	b.cc	81224 <_ZN4core7unicode12unicode_data15grapheme_extend6lookup17h4c3fb151a65b2097E+0xa4>  // b.lo, b.ul, b.last
   811e4:	f1007d3f 	cmp	x9, #0x1f
   811e8:	54000642 	b.cs	812b0 <_ZN4core7unicode12unicode_data15grapheme_extend6lookup17h4c3fb151a65b2097E+0x130>  // b.hs, b.nlast
   811ec:	b8697949 	ldr	w9, [x10, x9, lsl #2]
   811f0:	1200512c 	and	w12, w9, #0x1fffff
   811f4:	b8687948 	ldr	w8, [x10, x8, lsl #2]
   811f8:	d355fd08 	lsr	x8, x8, #21
   811fc:	aa2803e9 	mvn	x9, x8
   81200:	ab09017f 	cmn	x11, x9
   81204:	540001c1 	b.ne	8123c <_ZN4core7unicode12unicode_data15grapheme_extend6lookup17h4c3fb151a65b2097E+0xbc>  // b.any
   81208:	12000100 	and	w0, w8, #0x1
   8120c:	d65f03c0 	ret
   81210:	8b080949 	add	x9, x10, x8, lsl #2
   81214:	b9400529 	ldr	w9, [x9, #4]
   81218:	d355fd2b 	lsr	x11, x9, #21
   8121c:	f1000509 	subs	x9, x8, #0x1
   81220:	54fffe22 	b.cs	811e4 <_ZN4core7unicode12unicode_data15grapheme_extend6lookup17h4c3fb151a65b2097E+0x64>  // b.hs, b.nlast
   81224:	2a1f03ec 	mov	w12, wzr
   81228:	b8687948 	ldr	w8, [x10, x8, lsl #2]
   8122c:	d355fd08 	lsr	x8, x8, #21
   81230:	aa2803e9 	mvn	x9, x8
   81234:	ab09017f 	cmn	x11, x9
   81238:	54fffe80 	b.eq	81208 <_ZN4core7unicode12unicode_data15grapheme_extend6lookup17h4c3fb151a65b2097E+0x88>  // b.none
   8123c:	4b0c000a 	sub	w10, w0, w12
   81240:	f10ac51f 	cmp	x8, #0x2b1
   81244:	5280562c 	mov	w12, #0x2b1                 	// #689
   81248:	2a1f03e9 	mov	w9, wzr
   8124c:	9a8c8100 	csel	x0, x8, x12, hi  // hi = pmore
   81250:	9000002c 	adrp	x12, 85000 <__exception_handler_default>
   81254:	d100056b 	sub	x11, x11, #0x1
   81258:	913da18c 	add	x12, x12, #0xf68
   8125c:	eb08001f 	cmp	x0, x8
   81260:	54000160 	b.eq	8128c <_ZN4core7unicode12unicode_data15grapheme_extend6lookup17h4c3fb151a65b2097E+0x10c>  // b.none
   81264:	3868698d 	ldrb	w13, [x12, x8]
   81268:	0b0d0129 	add	w9, w9, w13
   8126c:	6b0a013f 	cmp	w9, w10
   81270:	54fffcc8 	b.hi	81208 <_ZN4core7unicode12unicode_data15grapheme_extend6lookup17h4c3fb151a65b2097E+0x88>  // b.pmore
   81274:	91000508 	add	x8, x8, #0x1
   81278:	eb08017f 	cmp	x11, x8
   8127c:	54ffff01 	b.ne	8125c <_ZN4core7unicode12unicode_data15grapheme_extend6lookup17h4c3fb151a65b2097E+0xdc>  // b.any
   81280:	aa0b03e8 	mov	x8, x11
   81284:	12000100 	and	w0, w8, #0x1
   81288:	d65f03c0 	ret
   8128c:	d0000022 	adrp	x2, 87000 <_ZN17ruspiro_allocator6memory12FREE_BUCKETS17h862d300f99d834deE.llvm.11995692481347540951+0xc0>
   81290:	52805621 	mov	w1, #0x2b1                 	// #689
   81294:	9139c042 	add	x2, x2, #0xe70
   81298:	94000416 	bl	822f0 <_ZN4core9panicking18panic_bounds_check17h7e98c39e5d454fafE>
   8129c:	d4200020 	brk	#0x1
   812a0:	d0000022 	adrp	x2, 87000 <_ZN17ruspiro_allocator6memory12FREE_BUCKETS17h862d300f99d834deE.llvm.11995692481347540951+0xc0>
   812a4:	aa0803e0 	mov	x0, x8
   812a8:	91396042 	add	x2, x2, #0xe58
   812ac:	14000004 	b	812bc <_ZN4core7unicode12unicode_data15grapheme_extend6lookup17h4c3fb151a65b2097E+0x13c>
   812b0:	d0000022 	adrp	x2, 87000 <_ZN17ruspiro_allocator6memory12FREE_BUCKETS17h862d300f99d834deE.llvm.11995692481347540951+0xc0>
   812b4:	aa0903e0 	mov	x0, x9
   812b8:	913a2042 	add	x2, x2, #0xe88
   812bc:	528003e1 	mov	w1, #0x1f                  	// #31
   812c0:	9400040c 	bl	822f0 <_ZN4core9panicking18panic_bounds_check17h7e98c39e5d454fafE>
   812c4:	d4200020 	brk	#0x1
	...

00000000000812d0 <_ZN71_$LT$core..ops..range..Range$LT$Idx$GT$$u20$as$u20$core..fmt..Debug$GT$3fmt17h0898a25c28d0d34bE>:
   812d0:	d10283ff 	sub	sp, sp, #0xa0
   812d4:	b9403028 	ldr	w8, [x1, #48]
   812d8:	a9094ff4 	stp	x20, x19, [sp, #144]
   812dc:	aa0103f3 	mov	x19, x1
   812e0:	aa0003f4 	mov	x20, x0
   812e4:	f90043fe 	str	x30, [sp, #128]
   812e8:	372005a8 	tbnz	w8, #4, 8139c <_ZN71_$LT$core..ops..range..Range$LT$Idx$GT$$u20$as$u20$core..fmt..Debug$GT$3fmt17h0898a25c28d0d34bE+0xcc>
   812ec:	37280788 	tbnz	w8, #5, 813dc <_ZN71_$LT$core..ops..range..Range$LT$Idx$GT$$u20$as$u20$core..fmt..Debug$GT$3fmt17h0898a25c28d0d34bE+0x10c>
   812f0:	f9400288 	ldr	x8, [x20]
   812f4:	d344fd09 	lsr	x9, x8, #4
   812f8:	f109c53f 	cmp	x9, #0x271
   812fc:	54000ac3 	b.cc	81454 <_ZN71_$LT$core..ops..range..Range$LT$Idx$GT$$u20$as$u20$core..fmt..Debug$GT$3fmt17h0898a25c28d0d34bE+0x184>  // b.lo, b.ul, b.last
   81300:	d28b296b 	mov	x11, #0x594b                	// #22859
   81304:	529c1fea 	mov	w10, #0xe0ff                	// #57599
   81308:	f2a710cb 	movk	x11, #0x3886, lsl #16
   8130c:	90000030 	adrp	x16, 85000 <__exception_handler_default>
   81310:	f2d8bacb 	movk	x11, #0xc5d6, lsl #32
   81314:	aa1f03e9 	mov	x9, xzr
   81318:	72a0beaa 	movk	w10, #0x5f5, lsl #16
   8131c:	f2e68dab 	movk	x11, #0x346d, lsl #48
   81320:	5284e20c 	mov	w12, #0x2710                	// #10000
   81324:	52828f6d 	mov	w13, #0x147b                	// #5243
   81328:	52800c8e 	mov	w14, #0x64                  	// #100
   8132c:	910003ef 	mov	x15, sp
   81330:	91353e10 	add	x16, x16, #0xd4f
   81334:	aa0803f1 	mov	x17, x8
   81338:	9bcb7d08 	umulh	x8, x8, x11
   8133c:	8b0901e2 	add	x2, x15, x9
   81340:	d1001129 	sub	x9, x9, #0x4
   81344:	d34bfd08 	lsr	x8, x8, #11
   81348:	eb0a023f 	cmp	x17, x10
   8134c:	1b0cc512 	msub	w18, w8, w12, w17
   81350:	53023e40 	ubfx	w0, w18, #2, #14
   81354:	1b0d7c00 	mul	w0, w0, w13
   81358:	53117c00 	lsr	w0, w0, #17
   8135c:	1b0ec812 	msub	w18, w0, w14, w18
   81360:	8b204600 	add	x0, x16, w0, uxtw #1
   81364:	8b322612 	add	x18, x16, w18, uxth #1
   81368:	39400401 	ldrb	w1, [x0, #1]
   8136c:	39400000 	ldrb	w0, [x0]
   81370:	39400643 	ldrb	w3, [x18, #1]
   81374:	39400252 	ldrb	w18, [x18]
   81378:	39009041 	strb	w1, [x2, #36]
   8137c:	39008c40 	strb	w0, [x2, #35]
   81380:	39009843 	strb	w3, [x2, #38]
   81384:	39009452 	strb	w18, [x2, #37]
   81388:	54fffd68 	b.hi	81334 <_ZN71_$LT$core..ops..range..Range$LT$Idx$GT$$u20$as$u20$core..fmt..Debug$GT$3fmt17h0898a25c28d0d34bE+0x64>  // b.pmore
   8138c:	91009d29 	add	x9, x9, #0x27
   81390:	f1018d1f 	cmp	x8, #0x63
   81394:	5400066c 	b.gt	81460 <_ZN71_$LT$core..ops..range..Range$LT$Idx$GT$$u20$as$u20$core..fmt..Debug$GT$3fmt17h0898a25c28d0d34bE+0x190>
   81398:	14000043 	b	814a4 <_ZN71_$LT$core..ops..range..Range$LT$Idx$GT$$u20$as$u20$core..fmt..Debug$GT$3fmt17h0898a25c28d0d34bE+0x1d4>
   8139c:	f9400289 	ldr	x9, [x20]
   813a0:	aa1f03e8 	mov	x8, xzr
   813a4:	910003ea 	mov	x10, sp
   813a8:	52800aeb 	mov	w11, #0x57                  	// #87
   813ac:	5280060c 	mov	w12, #0x30                  	// #48
   813b0:	12000d2d 	and	w13, w9, #0xf
   813b4:	8b08014f 	add	x15, x10, x8
   813b8:	710029bf 	cmp	w13, #0xa
   813bc:	d1000508 	sub	x8, x8, #0x1
   813c0:	1a8b318e 	csel	w14, w12, w11, cc  // cc = lo, ul, last
   813c4:	f1003d3f 	cmp	x9, #0xf
   813c8:	0b0d01cd 	add	w13, w14, w13
   813cc:	d344fd29 	lsr	x9, x9, #4
   813d0:	3901fded 	strb	w13, [x15, #127]
   813d4:	54fffee8 	b.hi	813b0 <_ZN71_$LT$core..ops..range..Range$LT$Idx$GT$$u20$as$u20$core..fmt..Debug$GT$3fmt17h0898a25c28d0d34bE+0xe0>  // b.pmore
   813d8:	14000010 	b	81418 <_ZN71_$LT$core..ops..range..Range$LT$Idx$GT$$u20$as$u20$core..fmt..Debug$GT$3fmt17h0898a25c28d0d34bE+0x148>
   813dc:	f9400289 	ldr	x9, [x20]
   813e0:	aa1f03e8 	mov	x8, xzr
   813e4:	910003ea 	mov	x10, sp
   813e8:	528006eb 	mov	w11, #0x37                  	// #55
   813ec:	5280060c 	mov	w12, #0x30                  	// #48
   813f0:	12000d2d 	and	w13, w9, #0xf
   813f4:	8b08014f 	add	x15, x10, x8
   813f8:	710029bf 	cmp	w13, #0xa
   813fc:	d1000508 	sub	x8, x8, #0x1
   81400:	1a8b318e 	csel	w14, w12, w11, cc  // cc = lo, ul, last
   81404:	f1003d3f 	cmp	x9, #0xf
   81408:	0b0d01cd 	add	w13, w14, w13
   8140c:	d344fd29 	lsr	x9, x9, #4
   81410:	3901fded 	strb	w13, [x15, #127]
   81414:	54fffee8 	b.hi	813f0 <_ZN71_$LT$core..ops..range..Range$LT$Idx$GT$$u20$as$u20$core..fmt..Debug$GT$3fmt17h0898a25c28d0d34bE+0x120>  // b.pmore
   81418:	91020100 	add	x0, x8, #0x80
   8141c:	f102041f 	cmp	x0, #0x81
   81420:	54001e62 	b.cs	817ec <_ZN71_$LT$core..ops..range..Range$LT$Idx$GT$$u20$as$u20$core..fmt..Debug$GT$3fmt17h0898a25c28d0d34bE+0x51c>  // b.hs, b.nlast
   81424:	910003e9 	mov	x9, sp
   81428:	90000022 	adrp	x2, 85000 <__exception_handler_default>
   8142c:	8b080129 	add	x9, x9, x8
   81430:	cb0803e5 	neg	x5, x8
   81434:	91020124 	add	x4, x9, #0x80
   81438:	91352c42 	add	x2, x2, #0xd4b
   8143c:	aa1303e0 	mov	x0, x19
   81440:	52800021 	mov	w1, #0x1                   	// #1
   81444:	52800043 	mov	w3, #0x2                   	// #2
   81448:	940004da 	bl	827b0 <_ZN4core3fmt9Formatter12pad_integral17h4c381d3da2db2768E>
   8144c:	36000640 	tbz	w0, #0, 81514 <_ZN71_$LT$core..ops..range..Range$LT$Idx$GT$$u20$as$u20$core..fmt..Debug$GT$3fmt17h0898a25c28d0d34bE+0x244>
   81450:	1400003d 	b	81544 <_ZN71_$LT$core..ops..range..Range$LT$Idx$GT$$u20$as$u20$core..fmt..Debug$GT$3fmt17h0898a25c28d0d34bE+0x274>
   81454:	528004e9 	mov	w9, #0x27                  	// #39
   81458:	f1018d1f 	cmp	x8, #0x63
   8145c:	5400024d 	b.le	814a4 <_ZN71_$LT$core..ops..range..Range$LT$Idx$GT$$u20$as$u20$core..fmt..Debug$GT$3fmt17h0898a25c28d0d34bE+0x1d4>
   81460:	52828f6a 	mov	w10, #0x147b                	// #5243
   81464:	53023d0b 	ubfx	w11, w8, #2, #14
   81468:	d1000929 	sub	x9, x9, #0x2
   8146c:	1b0a7d6a 	mul	w10, w11, w10
   81470:	52800c8b 	mov	w11, #0x64                  	// #100
   81474:	53117d4a 	lsr	w10, w10, #17
   81478:	1b0ba148 	msub	w8, w10, w11, w8
   8147c:	9000002b 	adrp	x11, 85000 <__exception_handler_default>
   81480:	91353d6b 	add	x11, x11, #0xd4f
   81484:	8b282568 	add	x8, x11, w8, uxth #1
   81488:	910003eb 	mov	x11, sp
   8148c:	8b09016b 	add	x11, x11, x9
   81490:	3940050c 	ldrb	w12, [x8, #1]
   81494:	3940010d 	ldrb	w13, [x8]
   81498:	aa0a03e8 	mov	x8, x10
   8149c:	3900056c 	strb	w12, [x11, #1]
   814a0:	3900016d 	strb	w13, [x11]
   814a4:	f100291f 	cmp	x8, #0xa
   814a8:	540000ca 	b.ge	814c0 <_ZN71_$LT$core..ops..range..Range$LT$Idx$GT$$u20$as$u20$core..fmt..Debug$GT$3fmt17h0898a25c28d0d34bE+0x1f0>  // b.tcont
   814ac:	d1000529 	sub	x9, x9, #0x1
   814b0:	1100c108 	add	w8, w8, #0x30
   814b4:	910003ea 	mov	x10, sp
   814b8:	38296948 	strb	w8, [x10, x9]
   814bc:	1400000b 	b	814e8 <_ZN71_$LT$core..ops..range..Range$LT$Idx$GT$$u20$as$u20$core..fmt..Debug$GT$3fmt17h0898a25c28d0d34bE+0x218>
   814c0:	9000002a 	adrp	x10, 85000 <__exception_handler_default>
   814c4:	d1000929 	sub	x9, x9, #0x2
   814c8:	91353d4a 	add	x10, x10, #0xd4f
   814cc:	8b080548 	add	x8, x10, x8, lsl #1
   814d0:	910003ea 	mov	x10, sp
   814d4:	8b09014a 	add	x10, x10, x9
   814d8:	3940050b 	ldrb	w11, [x8, #1]
   814dc:	39400108 	ldrb	w8, [x8]
   814e0:	3900054b 	strb	w11, [x10, #1]
   814e4:	39000148 	strb	w8, [x10]
   814e8:	910003e8 	mov	x8, sp
   814ec:	528004ea 	mov	w10, #0x27                  	// #39
   814f0:	b0000022 	adrp	x2, 86000 <_ZN4core7unicode12unicode_data15grapheme_extend7OFFSETS17h43cbc87acfaf4d34E.llvm.111400220230659385+0x98>
   814f4:	8b090104 	add	x4, x8, x9
   814f8:	cb090145 	sub	x5, x10, x9
   814fc:	91088042 	add	x2, x2, #0x220
   81500:	aa1303e0 	mov	x0, x19
   81504:	52800021 	mov	w1, #0x1                   	// #1
   81508:	aa1f03e3 	mov	x3, xzr
   8150c:	940004a9 	bl	827b0 <_ZN4core3fmt9Formatter12pad_integral17h4c381d3da2db2768E>
   81510:	370001a0 	tbnz	w0, #0, 81544 <_ZN71_$LT$core..ops..range..Range$LT$Idx$GT$$u20$as$u20$core..fmt..Debug$GT$3fmt17h0898a25c28d0d34bE+0x274>
   81514:	d0000029 	adrp	x9, 87000 <_ZN17ruspiro_allocator6memory12FREE_BUCKETS17h862d300f99d834deE.llvm.11995692481347540951+0xc0>
   81518:	52800028 	mov	w8, #0x1                   	// #1
   8151c:	913a8129 	add	x9, x9, #0xea0
   81520:	910003e2 	mov	x2, sp
   81524:	a9420660 	ldp	x0, x1, [x19, #32]
   81528:	a90023e9 	stp	x9, x8, [sp]
   8152c:	b0000028 	adrp	x8, 86000 <_ZN4core7unicode12unicode_data15grapheme_extend7OFFSETS17h43cbc87acfaf4d34E.llvm.111400220230659385+0x98>
   81530:	91088108 	add	x8, x8, #0x220
   81534:	a9017fff 	stp	xzr, xzr, [sp, #16]
   81538:	a9027fe8 	stp	x8, xzr, [sp, #32]
   8153c:	94000409 	bl	82560 <_ZN4core3fmt5write17he3850105fd3ed4faE>
   81540:	340000c0 	cbz	w0, 81558 <_ZN71_$LT$core..ops..range..Range$LT$Idx$GT$$u20$as$u20$core..fmt..Debug$GT$3fmt17h0898a25c28d0d34bE+0x288>
   81544:	52800020 	mov	w0, #0x1                   	// #1
   81548:	a9494ff4 	ldp	x20, x19, [sp, #144]
   8154c:	f94043fe 	ldr	x30, [sp, #128]
   81550:	910283ff 	add	sp, sp, #0xa0
   81554:	d65f03c0 	ret
   81558:	b9403268 	ldr	w8, [x19, #48]
   8155c:	37200568 	tbnz	w8, #4, 81608 <_ZN71_$LT$core..ops..range..Range$LT$Idx$GT$$u20$as$u20$core..fmt..Debug$GT$3fmt17h0898a25c28d0d34bE+0x338>
   81560:	37280988 	tbnz	w8, #5, 81690 <_ZN71_$LT$core..ops..range..Range$LT$Idx$GT$$u20$as$u20$core..fmt..Debug$GT$3fmt17h0898a25c28d0d34bE+0x3c0>
   81564:	f9400688 	ldr	x8, [x20, #8]
   81568:	d344fd09 	lsr	x9, x8, #4
   8156c:	f109c53f 	cmp	x9, #0x271
   81570:	54000d43 	b.cc	81718 <_ZN71_$LT$core..ops..range..Range$LT$Idx$GT$$u20$as$u20$core..fmt..Debug$GT$3fmt17h0898a25c28d0d34bE+0x448>  // b.lo, b.ul, b.last
   81574:	d28b296b 	mov	x11, #0x594b                	// #22859
   81578:	529c1fea 	mov	w10, #0xe0ff                	// #57599
   8157c:	f2a710cb 	movk	x11, #0x3886, lsl #16
   81580:	90000030 	adrp	x16, 85000 <__exception_handler_default>
   81584:	f2d8bacb 	movk	x11, #0xc5d6, lsl #32
   81588:	aa1f03e9 	mov	x9, xzr
   8158c:	72a0beaa 	movk	w10, #0x5f5, lsl #16
   81590:	f2e68dab 	movk	x11, #0x346d, lsl #48
   81594:	5284e20c 	mov	w12, #0x2710                	// #10000
   81598:	52828f6d 	mov	w13, #0x147b                	// #5243
   8159c:	52800c8e 	mov	w14, #0x64                  	// #100
   815a0:	910003ef 	mov	x15, sp
   815a4:	91353e10 	add	x16, x16, #0xd4f
   815a8:	aa0803f1 	mov	x17, x8
   815ac:	9bcb7d08 	umulh	x8, x8, x11
   815b0:	8b0901e2 	add	x2, x15, x9
   815b4:	d1001129 	sub	x9, x9, #0x4
   815b8:	d34bfd08 	lsr	x8, x8, #11
   815bc:	eb0a023f 	cmp	x17, x10
   815c0:	1b0cc512 	msub	w18, w8, w12, w17
   815c4:	53023e40 	ubfx	w0, w18, #2, #14
   815c8:	1b0d7c00 	mul	w0, w0, w13
   815cc:	53117c00 	lsr	w0, w0, #17
   815d0:	1b0ec812 	msub	w18, w0, w14, w18
   815d4:	8b204600 	add	x0, x16, w0, uxtw #1
   815d8:	8b322612 	add	x18, x16, w18, uxth #1
   815dc:	39400401 	ldrb	w1, [x0, #1]
   815e0:	39400000 	ldrb	w0, [x0]
   815e4:	39400643 	ldrb	w3, [x18, #1]
   815e8:	39400252 	ldrb	w18, [x18]
   815ec:	39009041 	strb	w1, [x2, #36]
   815f0:	39008c40 	strb	w0, [x2, #35]
   815f4:	39009843 	strb	w3, [x2, #38]
   815f8:	39009452 	strb	w18, [x2, #37]
   815fc:	54fffd68 	b.hi	815a8 <_ZN71_$LT$core..ops..range..Range$LT$Idx$GT$$u20$as$u20$core..fmt..Debug$GT$3fmt17h0898a25c28d0d34bE+0x2d8>  // b.pmore
   81600:	91009d29 	add	x9, x9, #0x27
   81604:	14000046 	b	8171c <_ZN71_$LT$core..ops..range..Range$LT$Idx$GT$$u20$as$u20$core..fmt..Debug$GT$3fmt17h0898a25c28d0d34bE+0x44c>
   81608:	f9400689 	ldr	x9, [x20, #8]
   8160c:	aa1f03e8 	mov	x8, xzr
   81610:	910003ea 	mov	x10, sp
   81614:	52800aeb 	mov	w11, #0x57                  	// #87
   81618:	5280060c 	mov	w12, #0x30                  	// #48
   8161c:	12000d2d 	and	w13, w9, #0xf
   81620:	8b08014f 	add	x15, x10, x8
   81624:	710029bf 	cmp	w13, #0xa
   81628:	d1000508 	sub	x8, x8, #0x1
   8162c:	1a8b318e 	csel	w14, w12, w11, cc  // cc = lo, ul, last
   81630:	f1003d3f 	cmp	x9, #0xf
   81634:	0b0d01cd 	add	w13, w14, w13
   81638:	d344fd29 	lsr	x9, x9, #4
   8163c:	3901fded 	strb	w13, [x15, #127]
   81640:	54fffee8 	b.hi	8161c <_ZN71_$LT$core..ops..range..Range$LT$Idx$GT$$u20$as$u20$core..fmt..Debug$GT$3fmt17h0898a25c28d0d34bE+0x34c>  // b.pmore
   81644:	91020100 	add	x0, x8, #0x80
   81648:	f102041f 	cmp	x0, #0x81
   8164c:	54000d02 	b.cs	817ec <_ZN71_$LT$core..ops..range..Range$LT$Idx$GT$$u20$as$u20$core..fmt..Debug$GT$3fmt17h0898a25c28d0d34bE+0x51c>  // b.hs, b.nlast
   81650:	910003e9 	mov	x9, sp
   81654:	90000022 	adrp	x2, 85000 <__exception_handler_default>
   81658:	8b080129 	add	x9, x9, x8
   8165c:	cb0803e5 	neg	x5, x8
   81660:	91020124 	add	x4, x9, #0x80
   81664:	91352c42 	add	x2, x2, #0xd4b
   81668:	aa1303e0 	mov	x0, x19
   8166c:	52800021 	mov	w1, #0x1                   	// #1
   81670:	52800043 	mov	w3, #0x2                   	// #2
   81674:	9400044f 	bl	827b0 <_ZN4core3fmt9Formatter12pad_integral17h4c381d3da2db2768E>
   81678:	3707f660 	tbnz	w0, #0, 81544 <_ZN71_$LT$core..ops..range..Range$LT$Idx$GT$$u20$as$u20$core..fmt..Debug$GT$3fmt17h0898a25c28d0d34bE+0x274>
   8167c:	2a1f03e0 	mov	w0, wzr
   81680:	a9494ff4 	ldp	x20, x19, [sp, #144]
   81684:	f94043fe 	ldr	x30, [sp, #128]
   81688:	910283ff 	add	sp, sp, #0xa0
   8168c:	d65f03c0 	ret
   81690:	f9400689 	ldr	x9, [x20, #8]
   81694:	aa1f03e8 	mov	x8, xzr
   81698:	910003ea 	mov	x10, sp
   8169c:	528006eb 	mov	w11, #0x37                  	// #55
   816a0:	5280060c 	mov	w12, #0x30                  	// #48
   816a4:	12000d2d 	and	w13, w9, #0xf
   816a8:	8b08014f 	add	x15, x10, x8
   816ac:	710029bf 	cmp	w13, #0xa
   816b0:	d1000508 	sub	x8, x8, #0x1
   816b4:	1a8b318e 	csel	w14, w12, w11, cc  // cc = lo, ul, last
   816b8:	f1003d3f 	cmp	x9, #0xf
   816bc:	0b0d01cd 	add	w13, w14, w13
   816c0:	d344fd29 	lsr	x9, x9, #4
   816c4:	3901fded 	strb	w13, [x15, #127]
   816c8:	54fffee8 	b.hi	816a4 <_ZN71_$LT$core..ops..range..Range$LT$Idx$GT$$u20$as$u20$core..fmt..Debug$GT$3fmt17h0898a25c28d0d34bE+0x3d4>  // b.pmore
   816cc:	91020100 	add	x0, x8, #0x80
   816d0:	f102041f 	cmp	x0, #0x81
   816d4:	540008c2 	b.cs	817ec <_ZN71_$LT$core..ops..range..Range$LT$Idx$GT$$u20$as$u20$core..fmt..Debug$GT$3fmt17h0898a25c28d0d34bE+0x51c>  // b.hs, b.nlast
   816d8:	910003e9 	mov	x9, sp
   816dc:	90000022 	adrp	x2, 85000 <__exception_handler_default>
   816e0:	8b080129 	add	x9, x9, x8
   816e4:	cb0803e5 	neg	x5, x8
   816e8:	91020124 	add	x4, x9, #0x80
   816ec:	91352c42 	add	x2, x2, #0xd4b
   816f0:	aa1303e0 	mov	x0, x19
   816f4:	52800021 	mov	w1, #0x1                   	// #1
   816f8:	52800043 	mov	w3, #0x2                   	// #2
   816fc:	9400042d 	bl	827b0 <_ZN4core3fmt9Formatter12pad_integral17h4c381d3da2db2768E>
   81700:	3707f220 	tbnz	w0, #0, 81544 <_ZN71_$LT$core..ops..range..Range$LT$Idx$GT$$u20$as$u20$core..fmt..Debug$GT$3fmt17h0898a25c28d0d34bE+0x274>
   81704:	2a1f03e0 	mov	w0, wzr
   81708:	a9494ff4 	ldp	x20, x19, [sp, #144]
   8170c:	f94043fe 	ldr	x30, [sp, #128]
   81710:	910283ff 	add	sp, sp, #0xa0
   81714:	d65f03c0 	ret
   81718:	528004e9 	mov	w9, #0x27                  	// #39
   8171c:	f1018d1f 	cmp	x8, #0x63
   81720:	5400024d 	b.le	81768 <_ZN71_$LT$core..ops..range..Range$LT$Idx$GT$$u20$as$u20$core..fmt..Debug$GT$3fmt17h0898a25c28d0d34bE+0x498>
   81724:	52828f6a 	mov	w10, #0x147b                	// #5243
   81728:	53023d0b 	ubfx	w11, w8, #2, #14
   8172c:	d1000929 	sub	x9, x9, #0x2
   81730:	1b0a7d6a 	mul	w10, w11, w10
   81734:	52800c8b 	mov	w11, #0x64                  	// #100
   81738:	53117d4a 	lsr	w10, w10, #17
   8173c:	1b0ba148 	msub	w8, w10, w11, w8
   81740:	9000002b 	adrp	x11, 85000 <__exception_handler_default>
   81744:	91353d6b 	add	x11, x11, #0xd4f
   81748:	8b282568 	add	x8, x11, w8, uxth #1
   8174c:	910003eb 	mov	x11, sp
   81750:	8b09016b 	add	x11, x11, x9
   81754:	3940050c 	ldrb	w12, [x8, #1]
   81758:	3940010d 	ldrb	w13, [x8]
   8175c:	aa0a03e8 	mov	x8, x10
   81760:	3900056c 	strb	w12, [x11, #1]
   81764:	3900016d 	strb	w13, [x11]
   81768:	f100291f 	cmp	x8, #0xa
   8176c:	540000ca 	b.ge	81784 <_ZN71_$LT$core..ops..range..Range$LT$Idx$GT$$u20$as$u20$core..fmt..Debug$GT$3fmt17h0898a25c28d0d34bE+0x4b4>  // b.tcont
   81770:	d1000529 	sub	x9, x9, #0x1
   81774:	1100c108 	add	w8, w8, #0x30
   81778:	910003ea 	mov	x10, sp
   8177c:	38296948 	strb	w8, [x10, x9]
   81780:	1400000b 	b	817ac <_ZN71_$LT$core..ops..range..Range$LT$Idx$GT$$u20$as$u20$core..fmt..Debug$GT$3fmt17h0898a25c28d0d34bE+0x4dc>
   81784:	9000002a 	adrp	x10, 85000 <__exception_handler_default>
   81788:	d1000929 	sub	x9, x9, #0x2
   8178c:	91353d4a 	add	x10, x10, #0xd4f
   81790:	8b080548 	add	x8, x10, x8, lsl #1
   81794:	910003ea 	mov	x10, sp
   81798:	8b09014a 	add	x10, x10, x9
   8179c:	3940050b 	ldrb	w11, [x8, #1]
   817a0:	39400108 	ldrb	w8, [x8]
   817a4:	3900054b 	strb	w11, [x10, #1]
   817a8:	39000148 	strb	w8, [x10]
   817ac:	910003e8 	mov	x8, sp
   817b0:	528004ea 	mov	w10, #0x27                  	// #39
   817b4:	b0000022 	adrp	x2, 86000 <_ZN4core7unicode12unicode_data15grapheme_extend7OFFSETS17h43cbc87acfaf4d34E.llvm.111400220230659385+0x98>
   817b8:	8b090104 	add	x4, x8, x9
   817bc:	cb090145 	sub	x5, x10, x9
   817c0:	91088042 	add	x2, x2, #0x220
   817c4:	aa1303e0 	mov	x0, x19
   817c8:	52800021 	mov	w1, #0x1                   	// #1
   817cc:	aa1f03e3 	mov	x3, xzr
   817d0:	940003f8 	bl	827b0 <_ZN4core3fmt9Formatter12pad_integral17h4c381d3da2db2768E>
   817d4:	3707eb80 	tbnz	w0, #0, 81544 <_ZN71_$LT$core..ops..range..Range$LT$Idx$GT$$u20$as$u20$core..fmt..Debug$GT$3fmt17h0898a25c28d0d34bE+0x274>
   817d8:	2a1f03e0 	mov	w0, wzr
   817dc:	a9494ff4 	ldp	x20, x19, [sp, #144]
   817e0:	f94043fe 	ldr	x30, [sp, #128]
   817e4:	910283ff 	add	sp, sp, #0xa0
   817e8:	d65f03c0 	ret
   817ec:	d0000022 	adrp	x2, 87000 <_ZN17ruspiro_allocator6memory12FREE_BUCKETS17h862d300f99d834deE.llvm.11995692481347540951+0xc0>
   817f0:	52801001 	mov	w1, #0x80                  	// #128
   817f4:	91378042 	add	x2, x2, #0xde0
   817f8:	97fffe26 	bl	81090 <_ZN4core5slice5index26slice_start_index_len_fail17h7120a3f80a76b06bE>
   817fc:	d4200020 	brk	#0x1

0000000000081800 <_ZN4core7unicode9printable5check17h12f0cec41989e29fE.llvm.2339018429671269780>:
   81800:	b4000302 	cbz	x2, 81860 <_ZN4core7unicode9printable5check17h12f0cec41989e29fE.llvm.2339018429671269780+0x60>
   81804:	aa1f03e9 	mov	x9, xzr
   81808:	8b02042a 	add	x10, x1, x2, lsl #1
   8180c:	3940042b 	ldrb	w11, [x1, #1]
   81810:	12181c0d 	and	w13, w0, #0xff00
   81814:	3840242c 	ldrb	w12, [x1], #2
   81818:	8b0b0128 	add	x8, x9, x11
   8181c:	6b4d219f 	cmp	w12, w13, lsr #8
   81820:	54000181 	b.ne	81850 <_ZN4core7unicode9printable5check17h12f0cec41989e29fE.llvm.2339018429671269780+0x50>  // b.any
   81824:	eb09011f 	cmp	x8, x9
   81828:	540006c3 	b.cc	81900 <_ZN4core7unicode9printable5check17h12f0cec41989e29fE.llvm.2339018429671269780+0x100>  // b.lo, b.ul, b.last
   8182c:	eb04011f 	cmp	x8, x4
   81830:	54000748 	b.hi	81918 <_ZN4core7unicode9printable5check17h12f0cec41989e29fE.llvm.2339018429671269780+0x118>  // b.pmore
   81834:	8b090069 	add	x9, x3, x9
   81838:	b40000eb 	cbz	x11, 81854 <_ZN4core7unicode9printable5check17h12f0cec41989e29fE.llvm.2339018429671269780+0x54>
   8183c:	3840152c 	ldrb	w12, [x9], #1
   81840:	d100056b 	sub	x11, x11, #0x1
   81844:	6b20019f 	cmp	w12, w0, uxtb
   81848:	54ffff81 	b.ne	81838 <_ZN4core7unicode9printable5check17h12f0cec41989e29fE.llvm.2339018429671269780+0x38>  // b.any
   8184c:	14000020 	b	818cc <_ZN4core7unicode9printable5check17h12f0cec41989e29fE.llvm.2339018429671269780+0xcc>
   81850:	54000088 	b.hi	81860 <_ZN4core7unicode9printable5check17h12f0cec41989e29fE.llvm.2339018429671269780+0x60>  // b.pmore
   81854:	aa0803e9 	mov	x9, x8
   81858:	eb0a003f 	cmp	x1, x10
   8185c:	54fffd81 	b.ne	8180c <_ZN4core7unicode9printable5check17h12f0cec41989e29fE.llvm.2339018429671269780+0xc>  // b.any
   81860:	b40003c6 	cbz	x6, 818d8 <_ZN4core7unicode9printable5check17h12f0cec41989e29fE.llvm.2339018429671269780+0xd8>
   81864:	8b0600a9 	add	x9, x5, x6
   81868:	910004aa 	add	x10, x5, #0x1
   8186c:	12003c0b 	and	w11, w0, #0xffff
   81870:	52800028 	mov	w8, #0x1                   	// #1
   81874:	39c000ad 	ldrsb	w13, [x5]
   81878:	12001dac 	and	w12, w13, #0xff
   8187c:	36f8010d 	tbz	w13, #31, 8189c <_ZN4core7unicode9printable5check17h12f0cec41989e29fE.llvm.2339018429671269780+0x9c>
   81880:	eb09015f 	cmp	x10, x9
   81884:	54000300 	b.eq	818e4 <_ZN4core7unicode9printable5check17h12f0cec41989e29fE.llvm.2339018429671269780+0xe4>  // b.none
   81888:	b40002ea 	cbz	x10, 818e4 <_ZN4core7unicode9printable5check17h12f0cec41989e29fE.llvm.2339018429671269780+0xe4>
   8188c:	3840154d 	ldrb	w13, [x10], #1
   81890:	1200198c 	and	w12, w12, #0x7f
   81894:	3318198d 	bfi	w13, w12, #8, #7
   81898:	2a0d03ec 	mov	w12, w13
   8189c:	6b0c016b 	subs	w11, w11, w12
   818a0:	54000184 	b.mi	818d0 <_ZN4core7unicode9printable5check17h12f0cec41989e29fE.llvm.2339018429671269780+0xd0>  // b.first
   818a4:	eb09015f 	cmp	x10, x9
   818a8:	52000108 	eor	w8, w8, #0x1
   818ac:	9a8a03e5 	csel	x5, xzr, x10, eq  // eq = none
   818b0:	b4000105 	cbz	x5, 818d0 <_ZN4core7unicode9printable5check17h12f0cec41989e29fE.llvm.2339018429671269780+0xd0>
   818b4:	eb09015f 	cmp	x10, x9
   818b8:	9a8a054a 	cinc	x10, x10, ne  // ne = any
   818bc:	39c000ad 	ldrsb	w13, [x5]
   818c0:	12001dac 	and	w12, w13, #0xff
   818c4:	36fffecd 	tbz	w13, #31, 8189c <_ZN4core7unicode9printable5check17h12f0cec41989e29fE.llvm.2339018429671269780+0x9c>
   818c8:	17ffffee 	b	81880 <_ZN4core7unicode9printable5check17h12f0cec41989e29fE.llvm.2339018429671269780+0x80>
   818cc:	2a1f03e8 	mov	w8, wzr
   818d0:	12000100 	and	w0, w8, #0x1
   818d4:	d65f03c0 	ret
   818d8:	52800028 	mov	w8, #0x1                   	// #1
   818dc:	12000100 	and	w0, w8, #0x1
   818e0:	d65f03c0 	ret
   818e4:	b0000020 	adrp	x0, 86000 <_ZN4core7unicode12unicode_data15grapheme_extend7OFFSETS17h43cbc87acfaf4d34E.llvm.111400220230659385+0x98>
   818e8:	d0000022 	adrp	x2, 87000 <_ZN17ruspiro_allocator6memory12FREE_BUCKETS17h862d300f99d834deE.llvm.11995692481347540951+0xc0>
   818ec:	91088800 	add	x0, x0, #0x222
   818f0:	52800561 	mov	w1, #0x2b                  	// #43
   818f4:	913b2042 	add	x2, x2, #0xec8
   818f8:	9400026e 	bl	822b0 <_ZN4core9panicking5panic17h1276bf0d71dbfb98E>
   818fc:	d4200020 	brk	#0x1
   81900:	d0000022 	adrp	x2, 87000 <_ZN17ruspiro_allocator6memory12FREE_BUCKETS17h862d300f99d834deE.llvm.11995692481347540951+0xc0>
   81904:	aa0903e0 	mov	x0, x9
   81908:	913ac042 	add	x2, x2, #0xeb0
   8190c:	aa0803e1 	mov	x1, x8
   81910:	97fffe08 	bl	81130 <_ZN4core5slice5index22slice_index_order_fail17hb44310cbc3fa1d3fE>
   81914:	d4200020 	brk	#0x1
   81918:	d0000022 	adrp	x2, 87000 <_ZN17ruspiro_allocator6memory12FREE_BUCKETS17h862d300f99d834deE.llvm.11995692481347540951+0xc0>
   8191c:	aa0803e0 	mov	x0, x8
   81920:	913ac042 	add	x2, x2, #0xeb0
   81924:	aa0403e1 	mov	x1, x4
   81928:	97fffdee 	bl	810e0 <_ZN4core5slice5index24slice_end_index_len_fail17hb9f0a64be91517a4E>
   8192c:	d4200020 	brk	#0x1

0000000000081930 <_ZN4core3fmt3num3imp52_$LT$impl$u20$core..fmt..Display$u20$for$u20$u32$GT$3fmt17he6851cfd5ed0bdc4E>:
   81930:	d10103ff 	sub	sp, sp, #0x40
   81934:	b9400009 	ldr	w9, [x0]
   81938:	aa0103e0 	mov	x0, x1
   8193c:	f9001bfe 	str	x30, [sp, #48]
   81940:	d3447d28 	ubfx	x8, x9, #4, #28
   81944:	7109c51f 	cmp	w8, #0x271
   81948:	90000028 	adrp	x8, 85000 <__exception_handler_default>
   8194c:	91353d08 	add	x8, x8, #0xd4f
   81950:	540004c3 	b.cc	819e8 <_ZN4core3fmt3num3imp52_$LT$impl$u20$core..fmt..Display$u20$for$u20$u32$GT$3fmt17he6851cfd5ed0bdc4E+0xb8>  // b.lo, b.ul, b.last
   81954:	d28b296b 	mov	x11, #0x594b                	// #22859
   81958:	529c1ff0 	mov	w16, #0xe0ff                	// #57599
   8195c:	f2a710cb 	movk	x11, #0x3886, lsl #16
   81960:	aa1f03ea 	mov	x10, xzr
   81964:	f2d8bacb 	movk	x11, #0xc5d6, lsl #32
   81968:	5284e20c 	mov	w12, #0x2710                	// #10000
   8196c:	f2e68dab 	movk	x11, #0x346d, lsl #48
   81970:	52828f6d 	mov	w13, #0x147b                	// #5243
   81974:	52800c8e 	mov	w14, #0x64                  	// #100
   81978:	910023ef 	add	x15, sp, #0x8
   8197c:	72a0beb0 	movk	w16, #0x5f5, lsl #16
   81980:	aa0903f1 	mov	x17, x9
   81984:	9bcb7d29 	umulh	x9, x9, x11
   81988:	8b0a01e3 	add	x3, x15, x10
   8198c:	d100114a 	sub	x10, x10, #0x4
   81990:	d34bfd29 	lsr	x9, x9, #11
   81994:	eb10023f 	cmp	x17, x16
   81998:	1b0cc532 	msub	w18, w9, w12, w17
   8199c:	53023e41 	ubfx	w1, w18, #2, #14
   819a0:	1b0d7c21 	mul	w1, w1, w13
   819a4:	53117c21 	lsr	w1, w1, #17
   819a8:	1b0ec832 	msub	w18, w1, w14, w18
   819ac:	8b214501 	add	x1, x8, w1, uxtw #1
   819b0:	8b322512 	add	x18, x8, w18, uxth #1
   819b4:	39400422 	ldrb	w2, [x1, #1]
   819b8:	39400021 	ldrb	w1, [x1]
   819bc:	39400644 	ldrb	w4, [x18, #1]
   819c0:	39400252 	ldrb	w18, [x18]
   819c4:	39009062 	strb	w2, [x3, #36]
   819c8:	39008c61 	strb	w1, [x3, #35]
   819cc:	39009864 	strb	w4, [x3, #38]
   819d0:	39009472 	strb	w18, [x3, #37]
   819d4:	54fffd68 	b.hi	81980 <_ZN4core3fmt3num3imp52_$LT$impl$u20$core..fmt..Display$u20$for$u20$u32$GT$3fmt17he6851cfd5ed0bdc4E+0x50>  // b.pmore
   819d8:	91009d4a 	add	x10, x10, #0x27
   819dc:	f1018d3f 	cmp	x9, #0x63
   819e0:	540000a8 	b.hi	819f4 <_ZN4core3fmt3num3imp52_$LT$impl$u20$core..fmt..Display$u20$for$u20$u32$GT$3fmt17he6851cfd5ed0bdc4E+0xc4>  // b.pmore
   819e4:	14000013 	b	81a30 <_ZN4core3fmt3num3imp52_$LT$impl$u20$core..fmt..Display$u20$for$u20$u32$GT$3fmt17he6851cfd5ed0bdc4E+0x100>
   819e8:	528004ea 	mov	w10, #0x27                  	// #39
   819ec:	f1018d3f 	cmp	x9, #0x63
   819f0:	54000209 	b.ls	81a30 <_ZN4core3fmt3num3imp52_$LT$impl$u20$core..fmt..Display$u20$for$u20$u32$GT$3fmt17he6851cfd5ed0bdc4E+0x100>  // b.plast
   819f4:	52828f6b 	mov	w11, #0x147b                	// #5243
   819f8:	53023d2c 	ubfx	w12, w9, #2, #14
   819fc:	d100094a 	sub	x10, x10, #0x2
   81a00:	1b0b7d8b 	mul	w11, w12, w11
   81a04:	52800c8c 	mov	w12, #0x64                  	// #100
   81a08:	53117d6b 	lsr	w11, w11, #17
   81a0c:	1b0ca569 	msub	w9, w11, w12, w9
   81a10:	910023ec 	add	x12, sp, #0x8
   81a14:	8b0a018c 	add	x12, x12, x10
   81a18:	8b292509 	add	x9, x8, w9, uxth #1
   81a1c:	3940052d 	ldrb	w13, [x9, #1]
   81a20:	3940012e 	ldrb	w14, [x9]
   81a24:	aa0b03e9 	mov	x9, x11
   81a28:	3900058d 	strb	w13, [x12, #1]
   81a2c:	3900018e 	strb	w14, [x12]
   81a30:	f100293f 	cmp	x9, #0xa
   81a34:	540000ca 	b.ge	81a4c <_ZN4core3fmt3num3imp52_$LT$impl$u20$core..fmt..Display$u20$for$u20$u32$GT$3fmt17he6851cfd5ed0bdc4E+0x11c>  // b.tcont
   81a38:	d1000548 	sub	x8, x10, #0x1
   81a3c:	1100c129 	add	w9, w9, #0x30
   81a40:	910023ea 	add	x10, sp, #0x8
   81a44:	38286949 	strb	w9, [x10, x8]
   81a48:	14000009 	b	81a6c <_ZN4core3fmt3num3imp52_$LT$impl$u20$core..fmt..Display$u20$for$u20$u32$GT$3fmt17he6851cfd5ed0bdc4E+0x13c>
   81a4c:	8b090509 	add	x9, x8, x9, lsl #1
   81a50:	d1000948 	sub	x8, x10, #0x2
   81a54:	910023ea 	add	x10, sp, #0x8
   81a58:	8b08014a 	add	x10, x10, x8
   81a5c:	3940052b 	ldrb	w11, [x9, #1]
   81a60:	39400129 	ldrb	w9, [x9]
   81a64:	3900054b 	strb	w11, [x10, #1]
   81a68:	39000149 	strb	w9, [x10]
   81a6c:	910023e9 	add	x9, sp, #0x8
   81a70:	528004ea 	mov	w10, #0x27                  	// #39
   81a74:	b0000022 	adrp	x2, 86000 <_ZN4core7unicode12unicode_data15grapheme_extend7OFFSETS17h43cbc87acfaf4d34E.llvm.111400220230659385+0x98>
   81a78:	8b080124 	add	x4, x9, x8
   81a7c:	cb080145 	sub	x5, x10, x8
   81a80:	91088042 	add	x2, x2, #0x220
   81a84:	52800021 	mov	w1, #0x1                   	// #1
   81a88:	aa1f03e3 	mov	x3, xzr
   81a8c:	94000349 	bl	827b0 <_ZN4core3fmt9Formatter12pad_integral17h4c381d3da2db2768E>
   81a90:	f9401bfe 	ldr	x30, [sp, #48]
   81a94:	910103ff 	add	sp, sp, #0x40
   81a98:	d65f03c0 	ret
   81a9c:	00000000 	.inst	0x00000000 ; undefined

0000000000081aa0 <_ZN4core3fmt3num3imp52_$LT$impl$u20$core..fmt..Display$u20$for$u20$u64$GT$3fmt17h46890465b2877c61E>:
   81aa0:	d10103ff 	sub	sp, sp, #0x40
   81aa4:	f9400009 	ldr	x9, [x0]
   81aa8:	aa0103e0 	mov	x0, x1
   81aac:	f9001bfe 	str	x30, [sp, #48]
   81ab0:	d344fd28 	lsr	x8, x9, #4
   81ab4:	f109c51f 	cmp	x8, #0x271
   81ab8:	90000028 	adrp	x8, 85000 <__exception_handler_default>
   81abc:	91353d08 	add	x8, x8, #0xd4f
   81ac0:	540004c3 	b.cc	81b58 <_ZN4core3fmt3num3imp52_$LT$impl$u20$core..fmt..Display$u20$for$u20$u64$GT$3fmt17h46890465b2877c61E+0xb8>  // b.lo, b.ul, b.last
   81ac4:	d28b296b 	mov	x11, #0x594b                	// #22859
   81ac8:	529c1ff0 	mov	w16, #0xe0ff                	// #57599
   81acc:	f2a710cb 	movk	x11, #0x3886, lsl #16
   81ad0:	aa1f03ea 	mov	x10, xzr
   81ad4:	f2d8bacb 	movk	x11, #0xc5d6, lsl #32
   81ad8:	5284e20c 	mov	w12, #0x2710                	// #10000
   81adc:	f2e68dab 	movk	x11, #0x346d, lsl #48
   81ae0:	52828f6d 	mov	w13, #0x147b                	// #5243
   81ae4:	52800c8e 	mov	w14, #0x64                  	// #100
   81ae8:	910023ef 	add	x15, sp, #0x8
   81aec:	72a0beb0 	movk	w16, #0x5f5, lsl #16
   81af0:	aa0903f1 	mov	x17, x9
   81af4:	9bcb7d29 	umulh	x9, x9, x11
   81af8:	8b0a01e3 	add	x3, x15, x10
   81afc:	d100114a 	sub	x10, x10, #0x4
   81b00:	d34bfd29 	lsr	x9, x9, #11
   81b04:	eb10023f 	cmp	x17, x16
   81b08:	1b0cc532 	msub	w18, w9, w12, w17
   81b0c:	53023e41 	ubfx	w1, w18, #2, #14
   81b10:	1b0d7c21 	mul	w1, w1, w13
   81b14:	53117c21 	lsr	w1, w1, #17
   81b18:	1b0ec832 	msub	w18, w1, w14, w18
   81b1c:	8b214501 	add	x1, x8, w1, uxtw #1
   81b20:	8b322512 	add	x18, x8, w18, uxth #1
   81b24:	39400422 	ldrb	w2, [x1, #1]
   81b28:	39400021 	ldrb	w1, [x1]
   81b2c:	39400644 	ldrb	w4, [x18, #1]
   81b30:	39400252 	ldrb	w18, [x18]
   81b34:	39009062 	strb	w2, [x3, #36]
   81b38:	39008c61 	strb	w1, [x3, #35]
   81b3c:	39009864 	strb	w4, [x3, #38]
   81b40:	39009472 	strb	w18, [x3, #37]
   81b44:	54fffd68 	b.hi	81af0 <_ZN4core3fmt3num3imp52_$LT$impl$u20$core..fmt..Display$u20$for$u20$u64$GT$3fmt17h46890465b2877c61E+0x50>  // b.pmore
   81b48:	91009d4a 	add	x10, x10, #0x27
   81b4c:	f1018d3f 	cmp	x9, #0x63
   81b50:	540000ac 	b.gt	81b64 <_ZN4core3fmt3num3imp52_$LT$impl$u20$core..fmt..Display$u20$for$u20$u64$GT$3fmt17h46890465b2877c61E+0xc4>
   81b54:	14000013 	b	81ba0 <_ZN4core3fmt3num3imp52_$LT$impl$u20$core..fmt..Display$u20$for$u20$u64$GT$3fmt17h46890465b2877c61E+0x100>
   81b58:	528004ea 	mov	w10, #0x27                  	// #39
   81b5c:	f1018d3f 	cmp	x9, #0x63
   81b60:	5400020d 	b.le	81ba0 <_ZN4core3fmt3num3imp52_$LT$impl$u20$core..fmt..Display$u20$for$u20$u64$GT$3fmt17h46890465b2877c61E+0x100>
   81b64:	52828f6b 	mov	w11, #0x147b                	// #5243
   81b68:	53023d2c 	ubfx	w12, w9, #2, #14
   81b6c:	d100094a 	sub	x10, x10, #0x2
   81b70:	1b0b7d8b 	mul	w11, w12, w11
   81b74:	52800c8c 	mov	w12, #0x64                  	// #100
   81b78:	53117d6b 	lsr	w11, w11, #17
   81b7c:	1b0ca569 	msub	w9, w11, w12, w9
   81b80:	910023ec 	add	x12, sp, #0x8
   81b84:	8b0a018c 	add	x12, x12, x10
   81b88:	8b292509 	add	x9, x8, w9, uxth #1
   81b8c:	3940052d 	ldrb	w13, [x9, #1]
   81b90:	3940012e 	ldrb	w14, [x9]
   81b94:	aa0b03e9 	mov	x9, x11
   81b98:	3900058d 	strb	w13, [x12, #1]
   81b9c:	3900018e 	strb	w14, [x12]
   81ba0:	f100293f 	cmp	x9, #0xa
   81ba4:	540000ca 	b.ge	81bbc <_ZN4core3fmt3num3imp52_$LT$impl$u20$core..fmt..Display$u20$for$u20$u64$GT$3fmt17h46890465b2877c61E+0x11c>  // b.tcont
   81ba8:	d1000548 	sub	x8, x10, #0x1
   81bac:	1100c129 	add	w9, w9, #0x30
   81bb0:	910023ea 	add	x10, sp, #0x8
   81bb4:	38286949 	strb	w9, [x10, x8]
   81bb8:	14000009 	b	81bdc <_ZN4core3fmt3num3imp52_$LT$impl$u20$core..fmt..Display$u20$for$u20$u64$GT$3fmt17h46890465b2877c61E+0x13c>
   81bbc:	8b090509 	add	x9, x8, x9, lsl #1
   81bc0:	d1000948 	sub	x8, x10, #0x2
   81bc4:	910023ea 	add	x10, sp, #0x8
   81bc8:	8b08014a 	add	x10, x10, x8
   81bcc:	3940052b 	ldrb	w11, [x9, #1]
   81bd0:	39400129 	ldrb	w9, [x9]
   81bd4:	3900054b 	strb	w11, [x10, #1]
   81bd8:	39000149 	strb	w9, [x10]
   81bdc:	910023e9 	add	x9, sp, #0x8
   81be0:	528004ea 	mov	w10, #0x27                  	// #39
   81be4:	b0000022 	adrp	x2, 86000 <_ZN4core7unicode12unicode_data15grapheme_extend7OFFSETS17h43cbc87acfaf4d34E.llvm.111400220230659385+0x98>
   81be8:	8b080124 	add	x4, x9, x8
   81bec:	cb080145 	sub	x5, x10, x8
   81bf0:	91088042 	add	x2, x2, #0x220
   81bf4:	52800021 	mov	w1, #0x1                   	// #1
   81bf8:	aa1f03e3 	mov	x3, xzr
   81bfc:	940002ed 	bl	827b0 <_ZN4core3fmt9Formatter12pad_integral17h4c381d3da2db2768E>
   81c00:	f9401bfe 	ldr	x30, [sp, #48]
   81c04:	910103ff 	add	sp, sp, #0x40
   81c08:	d65f03c0 	ret
   81c0c:	00000000 	.inst	0x00000000 ; undefined

0000000000081c10 <_ZN60_$LT$core..cell..BorrowError$u20$as$u20$core..fmt..Debug$GT$3fmt17hac253b3e00c045d8E>:
   81c10:	a9422020 	ldp	x0, x8, [x1, #32]
   81c14:	b0000021 	adrp	x1, 86000 <_ZN4core7unicode12unicode_data15grapheme_extend7OFFSETS17h43cbc87acfaf4d34E.llvm.111400220230659385+0x98>
   81c18:	52800162 	mov	w2, #0xb                   	// #11
   81c1c:	91203c21 	add	x1, x1, #0x80f
   81c20:	f9400d03 	ldr	x3, [x8, #24]
   81c24:	d61f0060 	br	x3
	...

0000000000081c30 <_ZN63_$LT$core..cell..BorrowMutError$u20$as$u20$core..fmt..Debug$GT$3fmt17h0f879e9748ab9313E>:
   81c30:	a9422020 	ldp	x0, x8, [x1, #32]
   81c34:	b0000021 	adrp	x1, 86000 <_ZN4core7unicode12unicode_data15grapheme_extend7OFFSETS17h43cbc87acfaf4d34E.llvm.111400220230659385+0x98>
   81c38:	528001c2 	mov	w2, #0xe                   	// #14
   81c3c:	91206821 	add	x1, x1, #0x81a
   81c40:	f9400d03 	ldr	x3, [x8, #24]
   81c44:	d61f0060 	br	x3
	...

0000000000081c50 <_ZN4core6result13unwrap_failed17hc96e1f395f9c9207E>:
   81c50:	d101c3ff 	sub	sp, sp, #0x70
   81c54:	d0000009 	adrp	x9, 83000 <_ZN4core3fmt9Formatter3pad17h878fee43bbd7a693E+0x420>
   81c58:	910003e8 	mov	x8, sp
   81c5c:	91254129 	add	x9, x9, #0x950
   81c60:	910043ea 	add	x10, sp, #0x10
   81c64:	a90007e0 	stp	x0, x1, [sp]
   81c68:	910083e0 	add	x0, sp, #0x20
   81c6c:	aa0403e1 	mov	x1, x4
   81c70:	a9010fe2 	stp	x2, x3, [sp, #16]
   81c74:	a90527e8 	stp	x8, x9, [sp, #80]
   81c78:	d0000008 	adrp	x8, 83000 <_ZN4core3fmt9Formatter3pad17h878fee43bbd7a693E+0x420>
   81c7c:	91250108 	add	x8, x8, #0x940
   81c80:	d0000029 	adrp	x9, 87000 <_ZN17ruspiro_allocator6memory12FREE_BUCKETS17h862d300f99d834deE.llvm.11995692481347540951+0xc0>
   81c84:	913b8129 	add	x9, x9, #0xee0
   81c88:	a9037fff 	stp	xzr, xzr, [sp, #48]
   81c8c:	a90623ea 	stp	x10, x8, [sp, #96]
   81c90:	52800048 	mov	w8, #0x2                   	// #2
   81c94:	a90223e9 	stp	x9, x8, [sp, #32]
   81c98:	910143e9 	add	x9, sp, #0x50
   81c9c:	a90423e9 	stp	x9, x8, [sp, #64]
   81ca0:	940001a8 	bl	82340 <_ZN4core9panicking9panic_fmt17h2fb479caa573f9e3E>
   81ca4:	d4200020 	brk	#0x1
	...

0000000000081cb0 <_ZN4core3str16slice_error_fail17h932895516ec20f79E>:
   81cb0:	f104043f 	cmp	x1, #0x101
   81cb4:	a9b30fe2 	stp	x2, x3, [sp, #-208]!
   81cb8:	54000122 	b.cs	81cdc <_ZN4core3str16slice_error_fail17h932895516ec20f79E+0x2c>  // b.hs, b.nlast
   81cbc:	b0000029 	adrp	x9, 86000 <_ZN4core7unicode12unicode_data15grapheme_extend7OFFSETS17h43cbc87acfaf4d34E.llvm.111400220230659385+0x98>
   81cc0:	aa1f03e8 	mov	x8, xzr
   81cc4:	91214d29 	add	x9, x9, #0x853
   81cc8:	a90107e0 	stp	x0, x1, [sp, #16]
   81ccc:	eb01005f 	cmp	x2, x1
   81cd0:	a90223e9 	stp	x9, x8, [sp, #32]
   81cd4:	54001649 	b.ls	81f9c <_ZN4core3str16slice_error_fail17h932895516ec20f79E+0x2ec>  // b.plast
   81cd8:	140000c5 	b	81fec <_ZN4core3str16slice_error_fail17h932895516ec20f79E+0x33c>
   81cdc:	52802008 	mov	w8, #0x100                 	// #256
   81ce0:	38e86809 	ldrsb	w9, [x0, x8]
   81ce4:	3101053f 	cmn	w9, #0x41
   81ce8:	5400140c 	b.gt	81f68 <_ZN4core3str16slice_error_fail17h932895516ec20f79E+0x2b8>
   81cec:	8b080009 	add	x9, x0, x8
   81cf0:	38dff12a 	ldursb	w10, [x9, #-1]
   81cf4:	3101055f 	cmn	w10, #0x41
   81cf8:	54000bec 	b.gt	81e74 <_ZN4core3str16slice_error_fail17h932895516ec20f79E+0x1c4>
   81cfc:	38dfe12a 	ldursb	w10, [x9, #-2]
   81d00:	3101055f 	cmn	w10, #0x41
   81d04:	54000bcc 	b.gt	81e7c <_ZN4core3str16slice_error_fail17h932895516ec20f79E+0x1cc>
   81d08:	38dfd12a 	ldursb	w10, [x9, #-3]
   81d0c:	3101055f 	cmn	w10, #0x41
   81d10:	54000bac 	b.gt	81e84 <_ZN4core3str16slice_error_fail17h932895516ec20f79E+0x1d4>
   81d14:	38dfc12a 	ldursb	w10, [x9, #-4]
   81d18:	3101055f 	cmn	w10, #0x41
   81d1c:	54000b8c 	b.gt	81e8c <_ZN4core3str16slice_error_fail17h932895516ec20f79E+0x1dc>
   81d20:	38dfb12a 	ldursb	w10, [x9, #-5]
   81d24:	3101055f 	cmn	w10, #0x41
   81d28:	54000b6c 	b.gt	81e94 <_ZN4core3str16slice_error_fail17h932895516ec20f79E+0x1e4>
   81d2c:	38dfa12a 	ldursb	w10, [x9, #-6]
   81d30:	3101055f 	cmn	w10, #0x41
   81d34:	54000b4c 	b.gt	81e9c <_ZN4core3str16slice_error_fail17h932895516ec20f79E+0x1ec>
   81d38:	38df912a 	ldursb	w10, [x9, #-7]
   81d3c:	3101055f 	cmn	w10, #0x41
   81d40:	54000b2c 	b.gt	81ea4 <_ZN4core3str16slice_error_fail17h932895516ec20f79E+0x1f4>
   81d44:	38df812a 	ldursb	w10, [x9, #-8]
   81d48:	3101055f 	cmn	w10, #0x41
   81d4c:	54000b0c 	b.gt	81eac <_ZN4core3str16slice_error_fail17h932895516ec20f79E+0x1fc>
   81d50:	38df712a 	ldursb	w10, [x9, #-9]
   81d54:	3101055f 	cmn	w10, #0x41
   81d58:	54000aec 	b.gt	81eb4 <_ZN4core3str16slice_error_fail17h932895516ec20f79E+0x204>
   81d5c:	38df612a 	ldursb	w10, [x9, #-10]
   81d60:	3101055f 	cmn	w10, #0x41
   81d64:	54000acc 	b.gt	81ebc <_ZN4core3str16slice_error_fail17h932895516ec20f79E+0x20c>
   81d68:	38df512a 	ldursb	w10, [x9, #-11]
   81d6c:	3101055f 	cmn	w10, #0x41
   81d70:	54000aac 	b.gt	81ec4 <_ZN4core3str16slice_error_fail17h932895516ec20f79E+0x214>
   81d74:	38df412a 	ldursb	w10, [x9, #-12]
   81d78:	3101055f 	cmn	w10, #0x41
   81d7c:	54000a8c 	b.gt	81ecc <_ZN4core3str16slice_error_fail17h932895516ec20f79E+0x21c>
   81d80:	38df312a 	ldursb	w10, [x9, #-13]
   81d84:	3101055f 	cmn	w10, #0x41
   81d88:	54000a6c 	b.gt	81ed4 <_ZN4core3str16slice_error_fail17h932895516ec20f79E+0x224>
   81d8c:	38df212a 	ldursb	w10, [x9, #-14]
   81d90:	3101055f 	cmn	w10, #0x41
   81d94:	54000a4c 	b.gt	81edc <_ZN4core3str16slice_error_fail17h932895516ec20f79E+0x22c>
   81d98:	38df112a 	ldursb	w10, [x9, #-15]
   81d9c:	3101055f 	cmn	w10, #0x41
   81da0:	54000a2c 	b.gt	81ee4 <_ZN4core3str16slice_error_fail17h932895516ec20f79E+0x234>
   81da4:	38df012a 	ldursb	w10, [x9, #-16]
   81da8:	3101055f 	cmn	w10, #0x41
   81dac:	54000a0c 	b.gt	81eec <_ZN4core3str16slice_error_fail17h932895516ec20f79E+0x23c>
   81db0:	38def12a 	ldursb	w10, [x9, #-17]
   81db4:	3101055f 	cmn	w10, #0x41
   81db8:	540009ec 	b.gt	81ef4 <_ZN4core3str16slice_error_fail17h932895516ec20f79E+0x244>
   81dbc:	38dee12a 	ldursb	w10, [x9, #-18]
   81dc0:	3101055f 	cmn	w10, #0x41
   81dc4:	540009cc 	b.gt	81efc <_ZN4core3str16slice_error_fail17h932895516ec20f79E+0x24c>
   81dc8:	38ded12a 	ldursb	w10, [x9, #-19]
   81dcc:	3101055f 	cmn	w10, #0x41
   81dd0:	540009ac 	b.gt	81f04 <_ZN4core3str16slice_error_fail17h932895516ec20f79E+0x254>
   81dd4:	38dec12a 	ldursb	w10, [x9, #-20]
   81dd8:	3101055f 	cmn	w10, #0x41
   81ddc:	5400098c 	b.gt	81f0c <_ZN4core3str16slice_error_fail17h932895516ec20f79E+0x25c>
   81de0:	38deb12a 	ldursb	w10, [x9, #-21]
   81de4:	3101055f 	cmn	w10, #0x41
   81de8:	5400096c 	b.gt	81f14 <_ZN4core3str16slice_error_fail17h932895516ec20f79E+0x264>
   81dec:	38dea12a 	ldursb	w10, [x9, #-22]
   81df0:	3101055f 	cmn	w10, #0x41
   81df4:	5400094c 	b.gt	81f1c <_ZN4core3str16slice_error_fail17h932895516ec20f79E+0x26c>
   81df8:	38de912a 	ldursb	w10, [x9, #-23]
   81dfc:	3101055f 	cmn	w10, #0x41
   81e00:	5400092c 	b.gt	81f24 <_ZN4core3str16slice_error_fail17h932895516ec20f79E+0x274>
   81e04:	38de812a 	ldursb	w10, [x9, #-24]
   81e08:	3101055f 	cmn	w10, #0x41
   81e0c:	5400090c 	b.gt	81f2c <_ZN4core3str16slice_error_fail17h932895516ec20f79E+0x27c>
   81e10:	38de712a 	ldursb	w10, [x9, #-25]
   81e14:	3101055f 	cmn	w10, #0x41
   81e18:	540008ec 	b.gt	81f34 <_ZN4core3str16slice_error_fail17h932895516ec20f79E+0x284>
   81e1c:	38de612a 	ldursb	w10, [x9, #-26]
   81e20:	3101055f 	cmn	w10, #0x41
   81e24:	540008cc 	b.gt	81f3c <_ZN4core3str16slice_error_fail17h932895516ec20f79E+0x28c>
   81e28:	38de512a 	ldursb	w10, [x9, #-27]
   81e2c:	3101055f 	cmn	w10, #0x41
   81e30:	540008ac 	b.gt	81f44 <_ZN4core3str16slice_error_fail17h932895516ec20f79E+0x294>
   81e34:	38de412a 	ldursb	w10, [x9, #-28]
   81e38:	3101055f 	cmn	w10, #0x41
   81e3c:	5400088c 	b.gt	81f4c <_ZN4core3str16slice_error_fail17h932895516ec20f79E+0x29c>
   81e40:	38de312a 	ldursb	w10, [x9, #-29]
   81e44:	3101055f 	cmn	w10, #0x41
   81e48:	5400086c 	b.gt	81f54 <_ZN4core3str16slice_error_fail17h932895516ec20f79E+0x2a4>
   81e4c:	38de212a 	ldursb	w10, [x9, #-30]
   81e50:	3101055f 	cmn	w10, #0x41
   81e54:	5400084c 	b.gt	81f5c <_ZN4core3str16slice_error_fail17h932895516ec20f79E+0x2ac>
   81e58:	38de1129 	ldursb	w9, [x9, #-31]
   81e5c:	3101053f 	cmn	w9, #0x41
   81e60:	5400082c 	b.gt	81f64 <_ZN4core3str16slice_error_fail17h932895516ec20f79E+0x2b4>
   81e64:	f1008108 	subs	x8, x8, #0x20
   81e68:	54fff3c1 	b.ne	81ce0 <_ZN4core3str16slice_error_fail17h932895516ec20f79E+0x30>  // b.any
   81e6c:	aa1f03e9 	mov	x9, xzr
   81e70:	14000044 	b	81f80 <_ZN4core3str16slice_error_fail17h932895516ec20f79E+0x2d0>
   81e74:	d1000508 	sub	x8, x8, #0x1
   81e78:	1400003c 	b	81f68 <_ZN4core3str16slice_error_fail17h932895516ec20f79E+0x2b8>
   81e7c:	d1000908 	sub	x8, x8, #0x2
   81e80:	1400003a 	b	81f68 <_ZN4core3str16slice_error_fail17h932895516ec20f79E+0x2b8>
   81e84:	d1000d08 	sub	x8, x8, #0x3
   81e88:	14000038 	b	81f68 <_ZN4core3str16slice_error_fail17h932895516ec20f79E+0x2b8>
   81e8c:	d1001108 	sub	x8, x8, #0x4
   81e90:	14000036 	b	81f68 <_ZN4core3str16slice_error_fail17h932895516ec20f79E+0x2b8>
   81e94:	d1001508 	sub	x8, x8, #0x5
   81e98:	14000034 	b	81f68 <_ZN4core3str16slice_error_fail17h932895516ec20f79E+0x2b8>
   81e9c:	d1001908 	sub	x8, x8, #0x6
   81ea0:	14000032 	b	81f68 <_ZN4core3str16slice_error_fail17h932895516ec20f79E+0x2b8>
   81ea4:	d1001d08 	sub	x8, x8, #0x7
   81ea8:	14000030 	b	81f68 <_ZN4core3str16slice_error_fail17h932895516ec20f79E+0x2b8>
   81eac:	d1002108 	sub	x8, x8, #0x8
   81eb0:	1400002e 	b	81f68 <_ZN4core3str16slice_error_fail17h932895516ec20f79E+0x2b8>
   81eb4:	d1002508 	sub	x8, x8, #0x9
   81eb8:	1400002c 	b	81f68 <_ZN4core3str16slice_error_fail17h932895516ec20f79E+0x2b8>
   81ebc:	d1002908 	sub	x8, x8, #0xa
   81ec0:	1400002a 	b	81f68 <_ZN4core3str16slice_error_fail17h932895516ec20f79E+0x2b8>
   81ec4:	d1002d08 	sub	x8, x8, #0xb
   81ec8:	14000028 	b	81f68 <_ZN4core3str16slice_error_fail17h932895516ec20f79E+0x2b8>
   81ecc:	d1003108 	sub	x8, x8, #0xc
   81ed0:	14000026 	b	81f68 <_ZN4core3str16slice_error_fail17h932895516ec20f79E+0x2b8>
   81ed4:	d1003508 	sub	x8, x8, #0xd
   81ed8:	14000024 	b	81f68 <_ZN4core3str16slice_error_fail17h932895516ec20f79E+0x2b8>
   81edc:	d1003908 	sub	x8, x8, #0xe
   81ee0:	14000022 	b	81f68 <_ZN4core3str16slice_error_fail17h932895516ec20f79E+0x2b8>
   81ee4:	d1003d08 	sub	x8, x8, #0xf
   81ee8:	14000020 	b	81f68 <_ZN4core3str16slice_error_fail17h932895516ec20f79E+0x2b8>
   81eec:	d1004108 	sub	x8, x8, #0x10
   81ef0:	1400001e 	b	81f68 <_ZN4core3str16slice_error_fail17h932895516ec20f79E+0x2b8>
   81ef4:	d1004508 	sub	x8, x8, #0x11
   81ef8:	1400001c 	b	81f68 <_ZN4core3str16slice_error_fail17h932895516ec20f79E+0x2b8>
   81efc:	d1004908 	sub	x8, x8, #0x12
   81f00:	1400001a 	b	81f68 <_ZN4core3str16slice_error_fail17h932895516ec20f79E+0x2b8>
   81f04:	d1004d08 	sub	x8, x8, #0x13
   81f08:	14000018 	b	81f68 <_ZN4core3str16slice_error_fail17h932895516ec20f79E+0x2b8>
   81f0c:	d1005108 	sub	x8, x8, #0x14
   81f10:	14000016 	b	81f68 <_ZN4core3str16slice_error_fail17h932895516ec20f79E+0x2b8>
   81f14:	d1005508 	sub	x8, x8, #0x15
   81f18:	14000014 	b	81f68 <_ZN4core3str16slice_error_fail17h932895516ec20f79E+0x2b8>
   81f1c:	d1005908 	sub	x8, x8, #0x16
   81f20:	14000012 	b	81f68 <_ZN4core3str16slice_error_fail17h932895516ec20f79E+0x2b8>
   81f24:	d1005d08 	sub	x8, x8, #0x17
   81f28:	14000010 	b	81f68 <_ZN4core3str16slice_error_fail17h932895516ec20f79E+0x2b8>
   81f2c:	d1006108 	sub	x8, x8, #0x18
   81f30:	1400000e 	b	81f68 <_ZN4core3str16slice_error_fail17h932895516ec20f79E+0x2b8>
   81f34:	d1006508 	sub	x8, x8, #0x19
   81f38:	1400000c 	b	81f68 <_ZN4core3str16slice_error_fail17h932895516ec20f79E+0x2b8>
   81f3c:	d1006908 	sub	x8, x8, #0x1a
   81f40:	1400000a 	b	81f68 <_ZN4core3str16slice_error_fail17h932895516ec20f79E+0x2b8>
   81f44:	d1006d08 	sub	x8, x8, #0x1b
   81f48:	14000008 	b	81f68 <_ZN4core3str16slice_error_fail17h932895516ec20f79E+0x2b8>
   81f4c:	d1007108 	sub	x8, x8, #0x1c
   81f50:	14000006 	b	81f68 <_ZN4core3str16slice_error_fail17h932895516ec20f79E+0x2b8>
   81f54:	d1007508 	sub	x8, x8, #0x1d
   81f58:	14000004 	b	81f68 <_ZN4core3str16slice_error_fail17h932895516ec20f79E+0x2b8>
   81f5c:	d1007908 	sub	x8, x8, #0x1e
   81f60:	14000002 	b	81f68 <_ZN4core3str16slice_error_fail17h932895516ec20f79E+0x2b8>
   81f64:	d1007d08 	sub	x8, x8, #0x1f
   81f68:	eb01011f 	cmp	x8, x1
   81f6c:	54000062 	b.cs	81f78 <_ZN4core3str16slice_error_fail17h932895516ec20f79E+0x2c8>  // b.hs, b.nlast
   81f70:	aa0803e9 	mov	x9, x8
   81f74:	14000003 	b	81f80 <_ZN4core3str16slice_error_fail17h932895516ec20f79E+0x2d0>
   81f78:	aa0103e9 	mov	x9, x1
   81f7c:	54000801 	b.ne	8207c <_ZN4core3str16slice_error_fail17h932895516ec20f79E+0x3cc>  // b.any
   81f80:	a90127e0 	stp	x0, x9, [sp, #16]
   81f84:	b0000029 	adrp	x9, 86000 <_ZN4core7unicode12unicode_data15grapheme_extend7OFFSETS17h43cbc87acfaf4d34E.llvm.111400220230659385+0x98>
   81f88:	528000a8 	mov	w8, #0x5                   	// #5
   81f8c:	91233929 	add	x9, x9, #0x8ce
   81f90:	eb01005f 	cmp	x2, x1
   81f94:	a90223e9 	stp	x9, x8, [sp, #32]
   81f98:	540002a8 	b.hi	81fec <_ZN4core3str16slice_error_fail17h932895516ec20f79E+0x33c>  // b.pmore
   81f9c:	eb01007f 	cmp	x3, x1
   81fa0:	54000268 	b.hi	81fec <_ZN4core3str16slice_error_fail17h932895516ec20f79E+0x33c>  // b.pmore
   81fa4:	eb03005f 	cmp	x2, x3
   81fa8:	54000529 	b.ls	8204c <_ZN4core3str16slice_error_fail17h932895516ec20f79E+0x39c>  // b.plast
   81fac:	b0000029 	adrp	x9, 86000 <_ZN4core7unicode12unicode_data15grapheme_extend7OFFSETS17h43cbc87acfaf4d34E.llvm.111400220230659385+0x98>
   81fb0:	910003e8 	mov	x8, sp
   81fb4:	910023ea 	add	x10, sp, #0x8
   81fb8:	d000000b 	adrp	x11, 83000 <_ZN4core3fmt9Formatter3pad17h878fee43bbd7a693E+0x420>
   81fbc:	9125416b 	add	x11, x11, #0x950
   81fc0:	f9476d29 	ldr	x9, [x9, #3800]
   81fc4:	a90827e8 	stp	x8, x9, [sp, #128]
   81fc8:	910043e8 	add	x8, sp, #0x10
   81fcc:	a90927ea 	stp	x10, x9, [sp, #144]
   81fd0:	910083e9 	add	x9, sp, #0x20
   81fd4:	a90a2fe8 	stp	x8, x11, [sp, #160]
   81fd8:	52800088 	mov	w8, #0x4                   	// #4
   81fdc:	a90b2fe9 	stp	x9, x11, [sp, #176]
   81fe0:	d0000029 	adrp	x9, 87000 <_ZN17ruspiro_allocator6memory12FREE_BUCKETS17h862d300f99d834deE.llvm.11995692481347540951+0xc0>
   81fe4:	913d2129 	add	x9, x9, #0xf48
   81fe8:	14000011 	b	8202c <_ZN4core3str16slice_error_fail17h932895516ec20f79E+0x37c>
   81fec:	b000002a 	adrp	x10, 86000 <_ZN4core7unicode12unicode_data15grapheme_extend7OFFSETS17h43cbc87acfaf4d34E.llvm.111400220230659385+0x98>
   81ff0:	eb01005f 	cmp	x2, x1
   81ff4:	9a838048 	csel	x8, x2, x3, hi  // hi = pmore
   81ff8:	910103e9 	add	x9, sp, #0x40
   81ffc:	910043eb 	add	x11, sp, #0x10
   82000:	f9476d4a 	ldr	x10, [x10, #3800]
   82004:	f90023e8 	str	x8, [sp, #64]
   82008:	b0000008 	adrp	x8, 83000 <_ZN4core3fmt9Formatter3pad17h878fee43bbd7a693E+0x420>
   8200c:	91254108 	add	x8, x8, #0x950
   82010:	a9082be9 	stp	x9, x10, [sp, #128]
   82014:	910083e9 	add	x9, sp, #0x20
   82018:	a90923eb 	stp	x11, x8, [sp, #144]
   8201c:	a90a23e9 	stp	x9, x8, [sp, #160]
   82020:	b0000029 	adrp	x9, 87000 <_ZN17ruspiro_allocator6memory12FREE_BUCKETS17h862d300f99d834deE.llvm.11995692481347540951+0xc0>
   82024:	52800068 	mov	w8, #0x3                   	// #3
   82028:	913c6129 	add	x9, x9, #0xf18
   8202c:	a90523e9 	stp	x9, x8, [sp, #80]
   82030:	910203e9 	add	x9, sp, #0x80
   82034:	910143e0 	add	x0, sp, #0x50
   82038:	aa0403e1 	mov	x1, x4
   8203c:	a9067fff 	stp	xzr, xzr, [sp, #96]
   82040:	a90723e9 	stp	x9, x8, [sp, #112]
   82044:	940000bf 	bl	82340 <_ZN4core9panicking9panic_fmt17h2fb479caa573f9e3E>
   82048:	d4200020 	brk	#0x1
   8204c:	b5000242 	cbnz	x2, 82094 <_ZN4core3str16slice_error_fail17h932895516ec20f79E+0x3e4>
   82050:	f9001be3 	str	x3, [sp, #48]
   82054:	b50004e3 	cbnz	x3, 820f0 <_ZN4core3str16slice_error_fail17h932895516ec20f79E+0x440>
   82058:	aa1f03e3 	mov	x3, xzr
   8205c:	eb01007f 	cmp	x3, x1
   82060:	54000261 	b.ne	820ac <_ZN4core3str16slice_error_fail17h932895516ec20f79E+0x3fc>  // b.any
   82064:	90000020 	adrp	x0, 86000 <_ZN4core7unicode12unicode_data15grapheme_extend7OFFSETS17h43cbc87acfaf4d34E.llvm.111400220230659385+0x98>
   82068:	52800561 	mov	w1, #0x2b                  	// #43
   8206c:	9120a000 	add	x0, x0, #0x828
   82070:	aa0403e2 	mov	x2, x4
   82074:	9400008f 	bl	822b0 <_ZN4core9panicking5panic17h1276bf0d71dbfb98E>
   82078:	d4200020 	brk	#0x1
   8207c:	b0000024 	adrp	x4, 87000 <_ZN17ruspiro_allocator6memory12FREE_BUCKETS17h862d300f99d834deE.llvm.11995692481347540951+0xc0>
   82080:	aa1f03e2 	mov	x2, xzr
   82084:	913c0084 	add	x4, x4, #0xf00
   82088:	aa0803e3 	mov	x3, x8
   8208c:	97ffff09 	bl	81cb0 <_ZN4core3str16slice_error_fail17h932895516ec20f79E>
   82090:	d4200020 	brk	#0x1
   82094:	eb01005f 	cmp	x2, x1
   82098:	540001a2 	b.cs	820cc <_ZN4core3str16slice_error_fail17h932895516ec20f79E+0x41c>  // b.hs, b.nlast
   8209c:	38e26808 	ldrsb	w8, [x0, x2]
   820a0:	3101051f 	cmn	w8, #0x41
   820a4:	54fffd6c 	b.gt	82050 <_ZN4core3str16slice_error_fail17h932895516ec20f79E+0x3a0>
   820a8:	1400000b 	b	820d4 <_ZN4core3str16slice_error_fail17h932895516ec20f79E+0x424>
   820ac:	8b030008 	add	x8, x0, x3
   820b0:	aa0803eb 	mov	x11, x8
   820b4:	38c0156a 	ldrsb	w10, [x11], #1
   820b8:	12001d49 	and	w9, w10, #0xff
   820bc:	37f8026a 	tbnz	w10, #31, 82108 <_ZN4core3str16slice_error_fail17h932895516ec20f79E+0x458>
   820c0:	52800028 	mov	w8, #0x1                   	// #1
   820c4:	b9003fe9 	str	w9, [sp, #60]
   820c8:	14000044 	b	821d8 <_ZN4core3str16slice_error_fail17h932895516ec20f79E+0x528>
   820cc:	eb02003f 	cmp	x1, x2
   820d0:	54fffc00 	b.eq	82050 <_ZN4core3str16slice_error_fail17h932895516ec20f79E+0x3a0>  // b.none
   820d4:	aa0203e3 	mov	x3, x2
   820d8:	f9001be2 	str	x2, [sp, #48]
   820dc:	14000005 	b	820f0 <_ZN4core3str16slice_error_fail17h932895516ec20f79E+0x440>
   820e0:	eb03003f 	cmp	x1, x3
   820e4:	54fffc00 	b.eq	82064 <_ZN4core3str16slice_error_fail17h932895516ec20f79E+0x3b4>  // b.none
   820e8:	f1000463 	subs	x3, x3, #0x1
   820ec:	54fffb60 	b.eq	82058 <_ZN4core3str16slice_error_fail17h932895516ec20f79E+0x3a8>  // b.none
   820f0:	eb01007f 	cmp	x3, x1
   820f4:	54ffff62 	b.cs	820e0 <_ZN4core3str16slice_error_fail17h932895516ec20f79E+0x430>  // b.hs, b.nlast
   820f8:	38e36808 	ldrsb	w8, [x0, x3]
   820fc:	3101011f 	cmn	w8, #0x40
   82100:	54ffff4b 	b.lt	820e8 <_ZN4core3str16slice_error_fail17h932895516ec20f79E+0x438>  // b.tstop
   82104:	17ffffd6 	b	8205c <_ZN4core3str16slice_error_fail17h932895516ec20f79E+0x3ac>
   82108:	8b01000a 	add	x10, x0, x1
   8210c:	eb0a017f 	cmp	x11, x10
   82110:	54000101 	b.ne	82130 <_ZN4core3str16slice_error_fail17h932895516ec20f79E+0x480>  // b.any
   82114:	2a1f03e8 	mov	w8, wzr
   82118:	aa0a03ec 	mov	x12, x10
   8211c:	1200112b 	and	w11, w9, #0x1f
   82120:	71037d3f 	cmp	w9, #0xdf
   82124:	54000128 	b.hi	82148 <_ZN4core3str16slice_error_fail17h932895516ec20f79E+0x498>  // b.pmore
   82128:	331a1168 	bfi	w8, w11, #6, #5
   8212c:	1400001f 	b	821a8 <_ZN4core3str16slice_error_fail17h932895516ec20f79E+0x4f8>
   82130:	3940050b 	ldrb	w11, [x8, #1]
   82134:	9100090c 	add	x12, x8, #0x2
   82138:	12001568 	and	w8, w11, #0x3f
   8213c:	1200112b 	and	w11, w9, #0x1f
   82140:	71037d3f 	cmp	w9, #0xdf
   82144:	54ffff29 	b.ls	82128 <_ZN4core3str16slice_error_fail17h932895516ec20f79E+0x478>  // b.plast
   82148:	eb0a019f 	cmp	x12, x10
   8214c:	54000081 	b.ne	8215c <_ZN4core3str16slice_error_fail17h932895516ec20f79E+0x4ac>  // b.any
   82150:	2a1f03ed 	mov	w13, wzr
   82154:	aa0a03ec 	mov	x12, x10
   82158:	14000003 	b	82164 <_ZN4core3str16slice_error_fail17h932895516ec20f79E+0x4b4>
   8215c:	3840158d 	ldrb	w13, [x12], #1
   82160:	120015ad 	and	w13, w13, #0x3f
   82164:	331a150d 	bfi	w13, w8, #6, #6
   82168:	7103c13f 	cmp	w9, #0xf0
   8216c:	540000a3 	b.cc	82180 <_ZN4core3str16slice_error_fail17h932895516ec20f79E+0x4d0>  // b.lo, b.ul, b.last
   82170:	eb0a019f 	cmp	x12, x10
   82174:	540000c1 	b.ne	8218c <_ZN4core3str16slice_error_fail17h932895516ec20f79E+0x4dc>  // b.any
   82178:	2a1f03e8 	mov	w8, wzr
   8217c:	14000006 	b	82194 <_ZN4core3str16slice_error_fail17h932895516ec20f79E+0x4e4>
   82180:	3314116d 	bfi	w13, w11, #12, #5
   82184:	2a0d03e8 	mov	w8, w13
   82188:	14000008 	b	821a8 <_ZN4core3str16slice_error_fail17h932895516ec20f79E+0x4f8>
   8218c:	39400188 	ldrb	w8, [x12]
   82190:	12001508 	and	w8, w8, #0x3f
   82194:	530e0969 	ubfiz	w9, w11, #18, #3
   82198:	331a2da9 	bfi	w9, w13, #6, #12
   8219c:	2a080128 	orr	w8, w9, w8
   821a0:	7144411f 	cmp	w8, #0x110, lsl #12
   821a4:	54fff600 	b.eq	82064 <_ZN4core3str16slice_error_fail17h932895516ec20f79E+0x3b4>  // b.none
   821a8:	7102011f 	cmp	w8, #0x80
   821ac:	b9003fe8 	str	w8, [sp, #60]
   821b0:	54000062 	b.cs	821bc <_ZN4core3str16slice_error_fail17h932895516ec20f79E+0x50c>  // b.hs, b.nlast
   821b4:	52800028 	mov	w8, #0x1                   	// #1
   821b8:	14000008 	b	821d8 <_ZN4core3str16slice_error_fail17h932895516ec20f79E+0x528>
   821bc:	7120011f 	cmp	w8, #0x800
   821c0:	54000062 	b.cs	821cc <_ZN4core3str16slice_error_fail17h932895516ec20f79E+0x51c>  // b.hs, b.nlast
   821c4:	52800048 	mov	w8, #0x2                   	// #2
   821c8:	14000004 	b	821d8 <_ZN4core3str16slice_error_fail17h932895516ec20f79E+0x528>
   821cc:	7140411f 	cmp	w8, #0x10, lsl #12
   821d0:	52800068 	mov	w8, #0x3                   	// #3
   821d4:	9a883508 	cinc	x8, x8, cs  // cs = hs, nlast
   821d8:	9000002a 	adrp	x10, 86000 <_ZN4core7unicode12unicode_data15grapheme_extend7OFFSETS17h43cbc87acfaf4d34E.llvm.111400220230659385+0x98>
   821dc:	9000002b 	adrp	x11, 86000 <_ZN4core7unicode12unicode_data15grapheme_extend7OFFSETS17h43cbc87acfaf4d34E.llvm.111400220230659385+0x98>
   821e0:	8b030108 	add	x8, x8, x3
   821e4:	9100c3e9 	add	x9, sp, #0x30
   821e8:	f9476d4a 	ldr	x10, [x10, #3800]
   821ec:	f947716b 	ldr	x11, [x11, #3808]
   821f0:	a90423e3 	stp	x3, x8, [sp, #64]
   821f4:	9100f3e8 	add	x8, sp, #0x3c
   821f8:	a9082be9 	stp	x9, x10, [sp, #128]
   821fc:	f0ffffe9 	adrp	x9, 81000 <_ZN4core3fmt3num53_$LT$impl$u20$core..fmt..LowerHex$u20$for$u20$i64$GT$3fmt17h5b549b8f8f8626b6E+0x10>
   82200:	910b4129 	add	x9, x9, #0x2d0
   82204:	910103ea 	add	x10, sp, #0x40
   82208:	a9092fe8 	stp	x8, x11, [sp, #144]
   8220c:	b000000b 	adrp	x11, 83000 <_ZN4core3fmt9Formatter3pad17h878fee43bbd7a693E+0x420>
   82210:	9125416b 	add	x11, x11, #0x950
   82214:	910043e8 	add	x8, sp, #0x10
   82218:	a90a27ea 	stp	x10, x9, [sp, #160]
   8221c:	910083e9 	add	x9, sp, #0x20
   82220:	a90b2fe8 	stp	x8, x11, [sp, #176]
   82224:	528000a8 	mov	w8, #0x5                   	// #5
   82228:	a90c2fe9 	stp	x9, x11, [sp, #192]
   8222c:	b0000029 	adrp	x9, 87000 <_ZN17ruspiro_allocator6memory12FREE_BUCKETS17h862d300f99d834deE.llvm.11995692481347540951+0xc0>
   82230:	913e2129 	add	x9, x9, #0xf88
   82234:	17ffff7e 	b	8202c <_ZN4core3str16slice_error_fail17h932895516ec20f79E+0x37c>
	...

0000000000082240 <_ZN36_$LT$T$u20$as$u20$core..any..Any$GT$7type_id17he4f0107a5c0e69b3E>:
   82240:	d29b4ac0 	mov	x0, #0xda56                	// #55894
   82244:	f2a97e60 	movk	x0, #0x4bf3, lsl #16
   82248:	f2cb2f20 	movk	x0, #0x5979, lsl #32
   8224c:	f2ef9ba0 	movk	x0, #0x7cdd, lsl #48
   82250:	d65f03c0 	ret
	...

0000000000082260 <_ZN4core5panic10panic_info9PanicInfo8location17he58c7765cd5d2043E>:
   82260:	f9400c00 	ldr	x0, [x0, #24]
   82264:	d65f03c0 	ret
	...

0000000000082270 <_ZN4core3ptr28drop_in_place$LT$$RF$u64$GT$17hd5ba8fcbb9fdb90bE.llvm.14833330310357332318>:
   82270:	d65f03c0 	ret
	...

0000000000082280 <_ZN4core5panic8location8Location4file17h918403ddba986633E>:
   82280:	a9400408 	ldp	x8, x1, [x0]
   82284:	aa0803e0 	mov	x0, x8
   82288:	d65f03c0 	ret
   8228c:	00000000 	.inst	0x00000000 ; undefined

0000000000082290 <_ZN4core5panic8location8Location4line17hd2d5b0d999bfd45dE>:
   82290:	b9401000 	ldr	w0, [x0, #16]
   82294:	d65f03c0 	ret
	...

00000000000822a0 <_ZN4core5panic8location8Location6column17h7f6cd155d4327e1eE>:
   822a0:	b9401400 	ldr	w0, [x0, #20]
   822a4:	d65f03c0 	ret
	...

00000000000822b0 <_ZN4core9panicking5panic17h1276bf0d71dbfb98E>:
   822b0:	d10103ff 	sub	sp, sp, #0x40
   822b4:	9100c3e8 	add	x8, sp, #0x30
   822b8:	52800029 	mov	w9, #0x1                   	// #1
   822bc:	a90307e0 	stp	x0, x1, [sp, #48]
   822c0:	910003e0 	mov	x0, sp
   822c4:	aa0203e1 	mov	x1, x2
   822c8:	a9017fff 	stp	xzr, xzr, [sp, #16]
   822cc:	a90027e8 	stp	x8, x9, [sp]
   822d0:	90000028 	adrp	x8, 86000 <_ZN4core7unicode12unicode_data15grapheme_extend7OFFSETS17h43cbc87acfaf4d34E.llvm.111400220230659385+0x98>
   822d4:	9124e108 	add	x8, x8, #0x938
   822d8:	a9027fe8 	stp	x8, xzr, [sp, #32]
   822dc:	94000019 	bl	82340 <_ZN4core9panicking9panic_fmt17h2fb479caa573f9e3E>
   822e0:	d4200020 	brk	#0x1
	...

00000000000822f0 <_ZN4core9panicking18panic_bounds_check17h7e98c39e5d454fafE>:
   822f0:	d10183ff 	sub	sp, sp, #0x60
   822f4:	90000029 	adrp	x9, 86000 <_ZN4core7unicode12unicode_data15grapheme_extend7OFFSETS17h43cbc87acfaf4d34E.llvm.111400220230659385+0x98>
   822f8:	910023e8 	add	x8, sp, #0x8
   822fc:	910003ea 	mov	x10, sp
   82300:	f9476d29 	ldr	x9, [x9, #3800]
   82304:	a90007e0 	stp	x0, x1, [sp]
   82308:	910043e0 	add	x0, sp, #0x10
   8230c:	aa0203e1 	mov	x1, x2
   82310:	a9027fff 	stp	xzr, xzr, [sp, #32]
   82314:	a90427e8 	stp	x8, x9, [sp, #64]
   82318:	52800048 	mov	w8, #0x2                   	// #2
   8231c:	a90527ea 	stp	x10, x9, [sp, #80]
   82320:	b0000029 	adrp	x9, 87000 <_ZN17ruspiro_allocator6memory12FREE_BUCKETS17h862d300f99d834deE.llvm.11995692481347540951+0xc0>
   82324:	913fe129 	add	x9, x9, #0xff8
   82328:	a90123e9 	stp	x9, x8, [sp, #16]
   8232c:	910103e9 	add	x9, sp, #0x40
   82330:	a90323e9 	stp	x9, x8, [sp, #48]
   82334:	94000003 	bl	82340 <_ZN4core9panicking9panic_fmt17h2fb479caa573f9e3E>
   82338:	d4200020 	brk	#0x1
   8233c:	00000000 	.inst	0x00000000 ; undefined

0000000000082340 <_ZN4core9panicking9panic_fmt17h2fb479caa573f9e3E>:
   82340:	90000028 	adrp	x8, 86000 <_ZN4core7unicode12unicode_data15grapheme_extend7OFFSETS17h43cbc87acfaf4d34E.llvm.111400220230659385+0x98>
   82344:	b0000029 	adrp	x9, 87000 <_ZN17ruspiro_allocator6memory12FREE_BUCKETS17h862d300f99d834deE.llvm.11995692481347540951+0xc0>
   82348:	9124e108 	add	x8, x8, #0x938
   8234c:	913f6129 	add	x9, x9, #0xfd8
   82350:	a9be27e8 	stp	x8, x9, [sp, #-32]!
   82354:	a90107e0 	stp	x0, x1, [sp, #16]
   82358:	910003e0 	mov	x0, sp
   8235c:	94000005 	bl	82370 <rust_begin_unwind>
   82360:	d4200020 	brk	#0x1
	...

0000000000082370 <rust_begin_unwind>:
   82370:	d10243ff 	sub	sp, sp, #0x90
   82374:	a9084ffe 	stp	x30, x19, [sp, #128]
   82378:	97ffffba 	bl	82260 <_ZN4core5panic10panic_info9PanicInfo8location17he58c7765cd5d2043E>
   8237c:	90000028 	adrp	x8, 86000 <_ZN4core7unicode12unicode_data15grapheme_extend7OFFSETS17h43cbc87acfaf4d34E.llvm.111400220230659385+0x98>
   82380:	f9477508 	ldr	x8, [x8, #3816]
   82384:	b4000420 	cbz	x0, 82408 <rust_begin_unwind+0x98>
   82388:	f9400108 	ldr	x8, [x8]
   8238c:	b40005c8 	cbz	x8, 82444 <rust_begin_unwind+0xd4>
   82390:	aa0003f3 	mov	x19, x0
   82394:	97ffffbb 	bl	82280 <_ZN4core5panic8location8Location4file17h918403ddba986633E>
   82398:	a90387e0 	stp	x0, x1, [sp, #56]
   8239c:	aa1303e0 	mov	x0, x19
   823a0:	97ffffbc 	bl	82290 <_ZN4core5panic8location8Location4line17hd2d5b0d999bfd45dE>
   823a4:	b9004be0 	str	w0, [sp, #72]
   823a8:	aa1303e0 	mov	x0, x19
   823ac:	97ffffbd 	bl	822a0 <_ZN4core5panic8location8Location6column17h7f6cd155d4327e1eE>
   823b0:	90000009 	adrp	x9, 82000 <_ZN4core3str16slice_error_fail17h932895516ec20f79E+0x350>
   823b4:	9000002b 	adrp	x11, 86000 <_ZN4core7unicode12unicode_data15grapheme_extend7OFFSETS17h43cbc87acfaf4d34E.llvm.111400220230659385+0x98>
   823b8:	9100e3e8 	add	x8, sp, #0x38
   823bc:	9114c129 	add	x9, x9, #0x530
   823c0:	b9004fe0 	str	w0, [sp, #76]
   823c4:	d0000022 	adrp	x2, 88000 <anon.b2eb45f66a0b759930b184b68fba7a80.61.llvm.111400220230659385+0x178>
   823c8:	f947796b 	ldr	x11, [x11, #3824]
   823cc:	910123ea 	add	x10, sp, #0x48
   823d0:	a90527e8 	stp	x8, x9, [sp, #80]
   823d4:	910133e8 	add	x8, sp, #0x4c
   823d8:	d0000029 	adrp	x9, 88000 <anon.b2eb45f66a0b759930b184b68fba7a80.61.llvm.111400220230659385+0x178>
   823dc:	91024042 	add	x2, x2, #0x90
   823e0:	91018129 	add	x9, x9, #0x60
   823e4:	910023e0 	add	x0, sp, #0x8
   823e8:	a9072fe8 	stp	x8, x11, [sp, #112]
   823ec:	52800068 	mov	w8, #0x3                   	// #3
   823f0:	a9062fea 	stp	x10, x11, [sp, #96]
   823f4:	a901ffff 	stp	xzr, xzr, [sp, #24]
   823f8:	a900a3e9 	stp	x9, x8, [sp, #8]
   823fc:	910143e9 	add	x9, sp, #0x50
   82400:	a902a3e9 	stp	x9, x8, [sp, #40]
   82404:	1400000e 	b	8243c <rust_begin_unwind+0xcc>
   82408:	f9400108 	ldr	x8, [x8]
   8240c:	b40001c8 	cbz	x8, 82444 <rust_begin_unwind+0xd4>
   82410:	d0000028 	adrp	x8, 88000 <anon.b2eb45f66a0b759930b184b68fba7a80.61.llvm.111400220230659385+0x178>
   82414:	52800029 	mov	w9, #0x1                   	// #1
   82418:	91006108 	add	x8, x8, #0x18
   8241c:	d0000022 	adrp	x2, 88000 <anon.b2eb45f66a0b759930b184b68fba7a80.61.llvm.111400220230659385+0x178>
   82420:	a9067fff 	stp	xzr, xzr, [sp, #96]
   82424:	9100a042 	add	x2, x2, #0x28
   82428:	910143e0 	add	x0, sp, #0x50
   8242c:	a90527e8 	stp	x8, x9, [sp, #80]
   82430:	90000028 	adrp	x8, 86000 <_ZN4core7unicode12unicode_data15grapheme_extend7OFFSETS17h43cbc87acfaf4d34E.llvm.111400220230659385+0x98>
   82434:	9125c108 	add	x8, x8, #0x970
   82438:	a9077fe8 	stp	x8, xzr, [sp, #112]
   8243c:	52800021 	mov	w1, #0x1                   	// #1
   82440:	94000014 	bl	82490 <_ZN3log17__private_api_log17haa499543e16634a1E>
   82444:	14000000 	b	82444 <rust_begin_unwind+0xd4>
	...

0000000000082450 <_ZN4core3ptr32drop_in_place$LT$$RF$$RF$str$GT$17h8de11ae9a12aa18eE>:
   82450:	d65f03c0 	ret
	...

0000000000082460 <_ZN43_$LT$log..NopLogger$u20$as$u20$log..Log$GT$7enabled17ha489d50b3cf43f77E>:
   82460:	2a1f03e0 	mov	w0, wzr
   82464:	d65f03c0 	ret
	...

0000000000082470 <_ZN43_$LT$log..NopLogger$u20$as$u20$log..Log$GT$3log17hf245f4a53db4aac8E>:
   82470:	d65f03c0 	ret
	...

0000000000082480 <_ZN43_$LT$log..NopLogger$u20$as$u20$log..Log$GT$5flush17he4fce0f13ef37046E>:
   82480:	d65f03c0 	ret
	...

0000000000082490 <_ZN3log17__private_api_log17haa499543e16634a1E>:
   82490:	d10243ff 	sub	sp, sp, #0x90
   82494:	b0000029 	adrp	x9, 87000 <_ZN17ruspiro_allocator6memory12FREE_BUCKETS17h862d300f99d834deE.llvm.11995692481347540951+0xc0>
   82498:	f90043fe 	str	x30, [sp, #128]
   8249c:	91014129 	add	x9, x9, #0x50
   824a0:	b9403050 	ldr	w16, [x2, #48]
   824a4:	a9402c4a 	ldp	x10, x11, [x2]
   824a8:	d0000031 	adrp	x17, 88000 <anon.b2eb45f66a0b759930b184b68fba7a80.61.llvm.111400220230659385+0x178>
   824ac:	52800028 	mov	w8, #0x1                   	// #1
   824b0:	a941344c 	ldp	x12, x13, [x2, #16]
   824b4:	91046231 	add	x17, x17, #0x118
   824b8:	a9423c4e 	ldp	x14, x15, [x2, #32]
   824bc:	c8dffd29 	ldar	x9, [x9]
   824c0:	a940c803 	ldp	x3, x18, [x0, #8]
   824c4:	f9400002 	ldr	x2, [x0]
   824c8:	a9002be1 	stp	x1, x10, [sp]
   824cc:	d0000021 	adrp	x1, 88000 <anon.b2eb45f66a0b759930b184b68fba7a80.61.llvm.111400220230659385+0x178>
   824d0:	a9024be3 	stp	x3, x18, [sp, #32]
   824d4:	91038021 	add	x1, x1, #0xe0
   824d8:	a9404632 	ldp	x18, x17, [x17]
   824dc:	f100093f 	cmp	x9, #0x2
   824e0:	a941a804 	ldp	x4, x10, [x0, #24]
   824e4:	f9401400 	ldr	x0, [x0, #40]
   824e8:	9a810229 	csel	x9, x17, x1, eq  // eq = none
   824ec:	a90537ec 	stp	x12, x13, [sp, #80]
   824f0:	910003e1 	mov	x1, sp
   824f4:	a9032be4 	stp	x4, x10, [sp, #48]
   824f8:	9000002a 	adrp	x10, 86000 <_ZN4core7unicode12unicode_data15grapheme_extend7OFFSETS17h43cbc87acfaf4d34E.llvm.111400220230659385+0x98>
   824fc:	a9063bff 	stp	xzr, x14, [sp, #96]
   82500:	9127c14a 	add	x10, x10, #0x9f0
   82504:	a9047fe0 	stp	x0, xzr, [sp, #64]
   82508:	9a8a0240 	csel	x0, x18, x10, eq  // eq = none
   8250c:	f9003bef 	str	x15, [sp, #112]
   82510:	290f43e8 	stp	w8, w16, [sp, #120]
   82514:	f9401528 	ldr	x8, [x9, #40]
   82518:	a9010beb 	stp	x11, x2, [sp, #16]
   8251c:	d63f0100 	blr	x8
   82520:	f94043fe 	ldr	x30, [sp, #128]
   82524:	910243ff 	add	sp, sp, #0x90
   82528:	d65f03c0 	ret
   8252c:	00000000 	.inst	0x00000000 ; undefined

0000000000082530 <_ZN42_$LT$$RF$T$u20$as$u20$core..fmt..Debug$GT$3fmt17h4abc4ee51eac9854E>:
   82530:	a9402408 	ldp	x8, x9, [x0]
   82534:	aa0103e2 	mov	x2, x1
   82538:	aa0803e0 	mov	x0, x8
   8253c:	aa0903e1 	mov	x1, x9
   82540:	140002bc 	b	83030 <_ZN40_$LT$str$u20$as$u20$core..fmt..Debug$GT$3fmt17h5d87cdd23b341063E>
	...

0000000000082550 <_ZN4core3ops8function6FnOnce9call_once17h049e8c8a1d0ce9b8E.llvm.2931485523929443995>:
   82550:	f940001f 	ldr	xzr, [x0]
   82554:	14000000 	b	82554 <_ZN4core3ops8function6FnOnce9call_once17h049e8c8a1d0ce9b8E.llvm.2931485523929443995+0x4>
	...

0000000000082560 <_ZN4core3fmt5write17he3850105fd3ed4faE>:
   82560:	d10203ff 	sub	sp, sp, #0x80
   82564:	f0000008 	adrp	x8, 85000 <__exception_handler_default>
   82568:	a9074ff4 	stp	x20, x19, [sp, #112]
   8256c:	aa0203f3 	mov	x19, x2
   82570:	52800069 	mov	w9, #0x3                   	// #3
   82574:	f90023fe 	str	x30, [sp, #64]
   82578:	fd448900 	ldr	d0, [x8, #2320]
   8257c:	f9400848 	ldr	x8, [x2, #16]
   82580:	a9055ff8 	stp	x24, x23, [sp, #80]
   82584:	a90657f6 	stp	x22, x21, [sp, #96]
   82588:	f90003ff 	str	xzr, [sp]
   8258c:	f9000bff 	str	xzr, [sp, #16]
   82590:	3900e3e9 	strb	w9, [sp, #56]
   82594:	fd001be0 	str	d0, [sp, #48]
   82598:	a90207e0 	stp	x0, x1, [sp, #32]
   8259c:	b4000948 	cbz	x8, 826c4 <_ZN4core3fmt5write17he3850105fd3ed4faE+0x164>
   825a0:	f9400e69 	ldr	x9, [x19, #24]
   825a4:	5280070a 	mov	w10, #0x38                  	// #56
   825a8:	9b0a7d2a 	mul	x10, x9, x10
   825ac:	b4000c0a 	cbz	x10, 8272c <_ZN4core3fmt5write17he3850105fd3ed4faE+0x1cc>
   825b0:	f940026a 	ldr	x10, [x19]
   825b4:	5280070c 	mov	w12, #0x38                  	// #56
   825b8:	d37df12b 	lsl	x11, x9, #3
   825bc:	90000018 	adrp	x24, 82000 <_ZN4core3str16slice_error_fail17h932895516ec20f79E+0x350>
   825c0:	d100216b 	sub	x11, x11, #0x8
   825c4:	9b0c7d35 	mul	x21, x9, x12
   825c8:	d343fd6b 	lsr	x11, x11, #3
   825cc:	91000574 	add	x20, x11, #0x1
   825d0:	91002156 	add	x22, x10, #0x8
   825d4:	91006117 	add	x23, x8, #0x18
   825d8:	91154318 	add	x24, x24, #0x550
   825dc:	f94002c2 	ldr	x2, [x22]
   825e0:	b40000c2 	cbz	x2, 825f8 <_ZN4core3fmt5write17he3850105fd3ed4faE+0x98>
   825e4:	a94223e0 	ldp	x0, x8, [sp, #32]
   825e8:	f85f82c1 	ldur	x1, [x22, #-8]
   825ec:	f9400d08 	ldr	x8, [x8, #24]
   825f0:	d63f0100 	blr	x8
   825f4:	37000c00 	tbnz	w0, #0, 82774 <_ZN4core3fmt5write17he3850105fd3ed4faE+0x214>
   825f8:	b94012e8 	ldr	w8, [x23, #16]
   825fc:	b90037e8 	str	w8, [sp, #52]
   82600:	394062e8 	ldrb	w8, [x23, #24]
   82604:	3900e3e8 	strb	w8, [sp, #56]
   82608:	b94016e9 	ldr	w9, [x23, #20]
   8260c:	f9401268 	ldr	x8, [x19, #32]
   82610:	b90033e9 	str	w9, [sp, #48]
   82614:	a94026ea 	ldp	x10, x9, [x23]
   82618:	b40001ea 	cbz	x10, 82654 <_ZN4core3fmt5write17he3850105fd3ed4faE+0xf4>
   8261c:	f100055f 	cmp	x10, #0x1
   82620:	540000a1 	b.ne	82634 <_ZN4core3fmt5write17he3850105fd3ed4faE+0xd4>  // b.any
   82624:	8b09110a 	add	x10, x8, x9, lsl #4
   82628:	f940054a 	ldr	x10, [x10, #8]
   8262c:	eb18015f 	cmp	x10, x24
   82630:	540000c0 	b.eq	82648 <_ZN4core3fmt5write17he3850105fd3ed4faE+0xe8>  // b.none
   82634:	aa1f03ea 	mov	x10, xzr
   82638:	a90027ea 	stp	x10, x9, [sp]
   8263c:	a97f26ea 	ldp	x10, x9, [x23, #-16]
   82640:	b500012a 	cbnz	x10, 82664 <_ZN4core3fmt5write17he3850105fd3ed4faE+0x104>
   82644:	14000013 	b	82690 <_ZN4core3fmt5write17he3850105fd3ed4faE+0x130>
   82648:	d37ced29 	lsl	x9, x9, #4
   8264c:	f8696909 	ldr	x9, [x8, x9]
   82650:	f9400129 	ldr	x9, [x9]
   82654:	5280002a 	mov	w10, #0x1                   	// #1
   82658:	a90027ea 	stp	x10, x9, [sp]
   8265c:	a97f26ea 	ldp	x10, x9, [x23, #-16]
   82660:	b400018a 	cbz	x10, 82690 <_ZN4core3fmt5write17he3850105fd3ed4faE+0x130>
   82664:	f100055f 	cmp	x10, #0x1
   82668:	540000a1 	b.ne	8267c <_ZN4core3fmt5write17he3850105fd3ed4faE+0x11c>  // b.any
   8266c:	8b09110a 	add	x10, x8, x9, lsl #4
   82670:	f940054a 	ldr	x10, [x10, #8]
   82674:	eb18015f 	cmp	x10, x24
   82678:	54000060 	b.eq	82684 <_ZN4core3fmt5write17he3850105fd3ed4faE+0x124>  // b.none
   8267c:	aa1f03ea 	mov	x10, xzr
   82680:	14000005 	b	82694 <_ZN4core3fmt5write17he3850105fd3ed4faE+0x134>
   82684:	d37ced29 	lsl	x9, x9, #4
   82688:	f8696909 	ldr	x9, [x8, x9]
   8268c:	f9400129 	ldr	x9, [x9]
   82690:	5280002a 	mov	w10, #0x1                   	// #1
   82694:	a90127ea 	stp	x10, x9, [sp, #16]
   82698:	910003e1 	mov	x1, sp
   8269c:	f85e82e9 	ldur	x9, [x23, #-24]
   826a0:	8b091108 	add	x8, x8, x9, lsl #4
   826a4:	a9402500 	ldp	x0, x9, [x8]
   826a8:	d63f0120 	blr	x9
   826ac:	37000640 	tbnz	w0, #0, 82774 <_ZN4core3fmt5write17he3850105fd3ed4faE+0x214>
   826b0:	910042d6 	add	x22, x22, #0x10
   826b4:	f100e2b5 	subs	x21, x21, #0x38
   826b8:	9100e2f7 	add	x23, x23, #0x38
   826bc:	54fff901 	b.ne	825dc <_ZN4core3fmt5write17he3850105fd3ed4faE+0x7c>  // b.any
   826c0:	1400001c 	b	82730 <_ZN4core3fmt5write17he3850105fd3ed4faE+0x1d0>
   826c4:	f9401668 	ldr	x8, [x19, #40]
   826c8:	b4000408 	cbz	x8, 82748 <_ZN4core3fmt5write17he3850105fd3ed4faE+0x1e8>
   826cc:	f9401269 	ldr	x9, [x19, #32]
   826d0:	d37ced15 	lsl	x21, x8, #4
   826d4:	f940026a 	ldr	x10, [x19]
   826d8:	d10042a8 	sub	x8, x21, #0x10
   826dc:	d344fd08 	lsr	x8, x8, #4
   826e0:	91000514 	add	x20, x8, #0x1
   826e4:	91002137 	add	x23, x9, #0x8
   826e8:	91002156 	add	x22, x10, #0x8
   826ec:	f94002c2 	ldr	x2, [x22]
   826f0:	b40000c2 	cbz	x2, 82708 <_ZN4core3fmt5write17he3850105fd3ed4faE+0x1a8>
   826f4:	a94223e0 	ldp	x0, x8, [sp, #32]
   826f8:	f85f82c1 	ldur	x1, [x22, #-8]
   826fc:	f9400d08 	ldr	x8, [x8, #24]
   82700:	d63f0100 	blr	x8
   82704:	37000380 	tbnz	w0, #0, 82774 <_ZN4core3fmt5write17he3850105fd3ed4faE+0x214>
   82708:	a97fa2e0 	ldp	x0, x8, [x23, #-8]
   8270c:	910003e1 	mov	x1, sp
   82710:	d63f0100 	blr	x8
   82714:	37000300 	tbnz	w0, #0, 82774 <_ZN4core3fmt5write17he3850105fd3ed4faE+0x214>
   82718:	910042d6 	add	x22, x22, #0x10
   8271c:	910042f7 	add	x23, x23, #0x10
   82720:	f10042b5 	subs	x21, x21, #0x10
   82724:	54fffe41 	b.ne	826ec <_ZN4core3fmt5write17he3850105fd3ed4faE+0x18c>  // b.any
   82728:	14000002 	b	82730 <_ZN4core3fmt5write17he3850105fd3ed4faE+0x1d0>
   8272c:	aa1f03f4 	mov	x20, xzr
   82730:	a9402668 	ldp	x8, x9, [x19]
   82734:	8b141108 	add	x8, x8, x20, lsl #4
   82738:	eb09029f 	cmp	x20, x9
   8273c:	9a9f3108 	csel	x8, x8, xzr, cc  // cc = lo, ul, last
   82740:	54000103 	b.cc	82760 <_ZN4core3fmt5write17he3850105fd3ed4faE+0x200>  // b.lo, b.ul, b.last
   82744:	14000013 	b	82790 <_ZN4core3fmt5write17he3850105fd3ed4faE+0x230>
   82748:	aa1f03f4 	mov	x20, xzr
   8274c:	a9402668 	ldp	x8, x9, [x19]
   82750:	8b141108 	add	x8, x8, x20, lsl #4
   82754:	eb09029f 	cmp	x20, x9
   82758:	9a9f3108 	csel	x8, x8, xzr, cc  // cc = lo, ul, last
   8275c:	540001a2 	b.cs	82790 <_ZN4core3fmt5write17he3850105fd3ed4faE+0x230>  // b.hs, b.nlast
   82760:	a94227e0 	ldp	x0, x9, [sp, #32]
   82764:	a9400901 	ldp	x1, x2, [x8]
   82768:	f9400d28 	ldr	x8, [x9, #24]
   8276c:	d63f0100 	blr	x8
   82770:	36000100 	tbz	w0, #0, 82790 <_ZN4core3fmt5write17he3850105fd3ed4faE+0x230>
   82774:	52800020 	mov	w0, #0x1                   	// #1
   82778:	a9474ff4 	ldp	x20, x19, [sp, #112]
   8277c:	a94657f6 	ldp	x22, x21, [sp, #96]
   82780:	a9455ff8 	ldp	x24, x23, [sp, #80]
   82784:	f94023fe 	ldr	x30, [sp, #64]
   82788:	910203ff 	add	sp, sp, #0x80
   8278c:	d65f03c0 	ret
   82790:	2a1f03e0 	mov	w0, wzr
   82794:	a9474ff4 	ldp	x20, x19, [sp, #112]
   82798:	a94657f6 	ldp	x22, x21, [sp, #96]
   8279c:	a9455ff8 	ldp	x24, x23, [sp, #80]
   827a0:	f94023fe 	ldr	x30, [sp, #64]
   827a4:	910203ff 	add	sp, sp, #0x80
   827a8:	d65f03c0 	ret
   827ac:	00000000 	.inst	0x00000000 ; undefined

00000000000827b0 <_ZN4core3fmt9Formatter12pad_integral17h4c381d3da2db2768E>:
   827b0:	a9ba7bfd 	stp	x29, x30, [sp, #-96]!
   827b4:	a9035ff8 	stp	x24, x23, [sp, #48]
   827b8:	aa0203f7 	mov	x23, x2
   827bc:	a90457f6 	stp	x22, x21, [sp, #64]
   827c0:	aa0403f5 	mov	x21, x4
   827c4:	a9054ff4 	stp	x20, x19, [sp, #80]
   827c8:	aa0503f4 	mov	x20, x5
   827cc:	aa0303f6 	mov	x22, x3
   827d0:	aa0003f3 	mov	x19, x0
   827d4:	a9016ffc 	stp	x28, x27, [sp, #16]
   827d8:	a90267fa 	stp	x26, x25, [sp, #32]
   827dc:	340001e1 	cbz	w1, 82818 <_ZN4core3fmt9Formatter12pad_integral17h4c381d3da2db2768E+0x68>
   827e0:	b9403268 	ldr	w8, [x19, #48]
   827e4:	5280056a 	mov	w10, #0x2b                  	// #43
   827e8:	52a0022b 	mov	w11, #0x110000              	// #1114112
   827ec:	92400109 	and	x9, x8, #0x1
   827f0:	7100013f 	cmp	w9, #0x0
   827f4:	8b140129 	add	x9, x9, x20
   827f8:	1a8a0178 	csel	w24, w11, w10, eq  // eq = none
   827fc:	36100168 	tbz	w8, #2, 82828 <_ZN4core3fmt9Formatter12pad_integral17h4c381d3da2db2768E+0x78>
   82800:	b4000216 	cbz	x22, 82840 <_ZN4core3fmt9Formatter12pad_integral17h4c381d3da2db2768E+0x90>
   82804:	f10012df 	cmp	x22, #0x4
   82808:	54000202 	b.cs	82848 <_ZN4core3fmt9Formatter12pad_integral17h4c381d3da2db2768E+0x98>  // b.hs, b.nlast
   8280c:	aa1f03ec 	mov	x12, xzr
   82810:	aa1703ea 	mov	x10, x23
   82814:	14000033 	b	828e0 <_ZN4core3fmt9Formatter12pad_integral17h4c381d3da2db2768E+0x130>
   82818:	b9403268 	ldr	w8, [x19, #48]
   8281c:	91000689 	add	x9, x20, #0x1
   82820:	528005b8 	mov	w24, #0x2d                  	// #45
   82824:	3717fee8 	tbnz	w8, #2, 82800 <_ZN4core3fmt9Formatter12pad_integral17h4c381d3da2db2768E+0x50>
   82828:	aa1f03f7 	mov	x23, xzr
   8282c:	aa1f03f6 	mov	x22, xzr
   82830:	f940026a 	ldr	x10, [x19]
   82834:	f100055f 	cmp	x10, #0x1
   82838:	540006a0 	b.eq	8290c <_ZN4core3fmt9Formatter12pad_integral17h4c381d3da2db2768E+0x15c>  // b.none
   8283c:	14000041 	b	82940 <_ZN4core3fmt9Formatter12pad_integral17h4c381d3da2db2768E+0x190>
   82840:	aa1f03ec 	mov	x12, xzr
   82844:	1400002e 	b	828fc <_ZN4core3fmt9Formatter12pad_integral17h4c381d3da2db2768E+0x14c>
   82848:	6f00e400 	movi	v0.2d, #0x0
   8284c:	5280002a 	mov	w10, #0x1                   	// #1
   82850:	0f060401 	movi	v1.2s, #0xc0
   82854:	927ef6cb 	and	x11, x22, #0xfffffffffffffffc
   82858:	0f040402 	movi	v2.2s, #0x80
   8285c:	91000aec 	add	x12, x23, #0x2
   82860:	4e080d43 	dup	v3.2d, x10
   82864:	8b0b02ea 	add	x10, x23, x11
   82868:	aa0b03ed 	mov	x13, x11
   8286c:	4ea01c04 	mov	v4.16b, v0.16b
   82870:	385fe18e 	ldurb	w14, [x12, #-2]
   82874:	f10011ad 	subs	x13, x13, #0x4
   82878:	3940018f 	ldrb	w15, [x12]
   8287c:	385ff190 	ldurb	w16, [x12, #-1]
   82880:	1e2701c5 	fmov	s5, w14
   82884:	3940058e 	ldrb	w14, [x12, #1]
   82888:	1e2701e6 	fmov	s6, w15
   8288c:	9100118c 	add	x12, x12, #0x4
   82890:	4e0c1e05 	mov	v5.s[1], w16
   82894:	4e0c1dc6 	mov	v6.s[1], w14
   82898:	0e211ca5 	and	v5.8b, v5.8b, v1.8b
   8289c:	0e211cc6 	and	v6.8b, v6.8b, v1.8b
   828a0:	2ea28ca5 	cmeq	v5.2s, v5.2s, v2.2s
   828a4:	2ea28cc6 	cmeq	v6.2s, v6.2s, v2.2s
   828a8:	2e2058a5 	mvn	v5.8b, v5.8b
   828ac:	2e2058c6 	mvn	v6.8b, v6.8b
   828b0:	2f20a4a5 	uxtl	v5.2d, v5.2s
   828b4:	2f20a4c6 	uxtl	v6.2d, v6.2s
   828b8:	4e231ca5 	and	v5.16b, v5.16b, v3.16b
   828bc:	4e231cc6 	and	v6.16b, v6.16b, v3.16b
   828c0:	4ee58400 	add	v0.2d, v0.2d, v5.2d
   828c4:	4ee68484 	add	v4.2d, v4.2d, v6.2d
   828c8:	54fffd41 	b.ne	82870 <_ZN4core3fmt9Formatter12pad_integral17h4c381d3da2db2768E+0xc0>  // b.any
   828cc:	4ee08480 	add	v0.2d, v4.2d, v0.2d
   828d0:	eb16017f 	cmp	x11, x22
   828d4:	5ef1b800 	addp	d0, v0.2d
   828d8:	9e66000c 	fmov	x12, d0
   828dc:	54000100 	b.eq	828fc <_ZN4core3fmt9Formatter12pad_integral17h4c381d3da2db2768E+0x14c>  // b.none
   828e0:	8b1602eb 	add	x11, x23, x22
   828e4:	3840154d 	ldrb	w13, [x10], #1
   828e8:	121a05ad 	and	w13, w13, #0xc0
   828ec:	710201bf 	cmp	w13, #0x80
   828f0:	9a8c058c 	cinc	x12, x12, ne  // ne = any
   828f4:	eb0b015f 	cmp	x10, x11
   828f8:	54ffff61 	b.ne	828e4 <_ZN4core3fmt9Formatter12pad_integral17h4c381d3da2db2768E+0x134>  // b.any
   828fc:	8b090189 	add	x9, x12, x9
   82900:	f940026a 	ldr	x10, [x19]
   82904:	f100055f 	cmp	x10, #0x1
   82908:	540001c1 	b.ne	82940 <_ZN4core3fmt9Formatter12pad_integral17h4c381d3da2db2768E+0x190>  // b.any
   8290c:	f940066a 	ldr	x10, [x19, #8]
   82910:	eb09015c 	subs	x28, x10, x9
   82914:	54000169 	b.ls	82940 <_ZN4core3fmt9Formatter12pad_integral17h4c381d3da2db2768E+0x190>  // b.plast
   82918:	37180488 	tbnz	w8, #3, 829a8 <_ZN4core3fmt9Formatter12pad_integral17h4c381d3da2db2768E+0x1f8>
   8291c:	3940e268 	ldrb	w8, [x19, #56]
   82920:	71000d1f 	cmp	w8, #0x3
   82924:	1a9f1508 	csinc	w8, w8, wzr, ne  // ne = any
   82928:	72000508 	ands	w8, w8, #0x3
   8292c:	54000680 	b.eq	829fc <_ZN4core3fmt9Formatter12pad_integral17h4c381d3da2db2768E+0x24c>  // b.none
   82930:	7100051f 	cmp	w8, #0x1
   82934:	540006a1 	b.ne	82a08 <_ZN4core3fmt9Formatter12pad_integral17h4c381d3da2db2768E+0x258>  // b.any
   82938:	aa1f03fb 	mov	x27, xzr
   8293c:	14000037 	b	82a18 <_ZN4core3fmt9Formatter12pad_integral17h4c381d3da2db2768E+0x268>
   82940:	aa1303e0 	mov	x0, x19
   82944:	2a1803e1 	mov	w1, w24
   82948:	aa1703e2 	mov	x2, x23
   8294c:	aa1603e3 	mov	x3, x22
   82950:	94000088 	bl	82b70 <_ZN4core3fmt9Formatter12pad_integral12write_prefix17h828c4f1b581ccd5fE>
   82954:	36000140 	tbz	w0, #0, 8297c <_ZN4core3fmt9Formatter12pad_integral17h4c381d3da2db2768E+0x1cc>
   82958:	52800039 	mov	w25, #0x1                   	// #1
   8295c:	2a1903e0 	mov	w0, w25
   82960:	a9454ff4 	ldp	x20, x19, [sp, #80]
   82964:	a94457f6 	ldp	x22, x21, [sp, #64]
   82968:	a9435ff8 	ldp	x24, x23, [sp, #48]
   8296c:	a94267fa 	ldp	x26, x25, [sp, #32]
   82970:	a9416ffc 	ldp	x28, x27, [sp, #16]
   82974:	a8c67bfd 	ldp	x29, x30, [sp], #96
   82978:	d65f03c0 	ret
   8297c:	a9422260 	ldp	x0, x8, [x19, #32]
   82980:	aa1503e1 	mov	x1, x21
   82984:	aa1403e2 	mov	x2, x20
   82988:	a9454ff4 	ldp	x20, x19, [sp, #80]
   8298c:	f9400d03 	ldr	x3, [x8, #24]
   82990:	a94457f6 	ldp	x22, x21, [sp, #64]
   82994:	a9435ff8 	ldp	x24, x23, [sp, #48]
   82998:	a94267fa 	ldp	x26, x25, [sp, #32]
   8299c:	a9416ffc 	ldp	x28, x27, [sp, #16]
   829a0:	a8c67bfd 	ldp	x29, x30, [sp], #96
   829a4:	d61f0060 	br	x3
   829a8:	b940367a 	ldr	w26, [x19, #52]
   829ac:	52800608 	mov	w8, #0x30                  	// #48
   829b0:	3940e27b 	ldrb	w27, [x19, #56]
   829b4:	52800039 	mov	w25, #0x1                   	// #1
   829b8:	aa1303e0 	mov	x0, x19
   829bc:	2a1803e1 	mov	w1, w24
   829c0:	aa1703e2 	mov	x2, x23
   829c4:	aa1603e3 	mov	x3, x22
   829c8:	b9003668 	str	w8, [x19, #52]
   829cc:	3900e279 	strb	w25, [x19, #56]
   829d0:	94000068 	bl	82b70 <_ZN4core3fmt9Formatter12pad_integral12write_prefix17h828c4f1b581ccd5fE>
   829d4:	3707fc40 	tbnz	w0, #0, 8295c <_ZN4core3fmt9Formatter12pad_integral17h4c381d3da2db2768E+0x1ac>
   829d8:	3940e268 	ldrb	w8, [x19, #56]
   829dc:	71000d1f 	cmp	w8, #0x3
   829e0:	1a9f1508 	csinc	w8, w8, wzr, ne  // ne = any
   829e4:	72000508 	ands	w8, w8, #0x3
   829e8:	54000640 	b.eq	82ab0 <_ZN4core3fmt9Formatter12pad_integral17h4c381d3da2db2768E+0x300>  // b.none
   829ec:	7100051f 	cmp	w8, #0x1
   829f0:	54000661 	b.ne	82abc <_ZN4core3fmt9Formatter12pad_integral17h4c381d3da2db2768E+0x30c>  // b.any
   829f4:	aa1f03f8 	mov	x24, xzr
   829f8:	14000035 	b	82acc <_ZN4core3fmt9Formatter12pad_integral17h4c381d3da2db2768E+0x31c>
   829fc:	aa1c03fb 	mov	x27, x28
   82a00:	aa1f03fc 	mov	x28, xzr
   82a04:	14000005 	b	82a18 <_ZN4core3fmt9Formatter12pad_integral17h4c381d3da2db2768E+0x268>
   82a08:	d341ff88 	lsr	x8, x28, #1
   82a0c:	91000789 	add	x9, x28, #0x1
   82a10:	aa0803fc 	mov	x28, x8
   82a14:	d341fd3b 	lsr	x27, x9, #1
   82a18:	a942767a 	ldp	x26, x29, [x19, #32]
   82a1c:	9100079c 	add	x28, x28, #0x1
   82a20:	b9403679 	ldr	w25, [x19, #52]
   82a24:	f100079c 	subs	x28, x28, #0x1
   82a28:	540000e0 	b.eq	82a44 <_ZN4core3fmt9Formatter12pad_integral17h4c381d3da2db2768E+0x294>  // b.none
   82a2c:	f94013a8 	ldr	x8, [x29, #32]
   82a30:	aa1a03e0 	mov	x0, x26
   82a34:	2a1903e1 	mov	w1, w25
   82a38:	d63f0100 	blr	x8
   82a3c:	3607ff40 	tbz	w0, #0, 82a24 <_ZN4core3fmt9Formatter12pad_integral17h4c381d3da2db2768E+0x274>
   82a40:	17ffffc6 	b	82958 <_ZN4core3fmt9Formatter12pad_integral17h4c381d3da2db2768E+0x1a8>
   82a44:	7144433f 	cmp	w25, #0x110, lsl #12
   82a48:	9a9b03fa 	csel	x26, xzr, x27, eq  // eq = none
   82a4c:	54fff860 	b.eq	82958 <_ZN4core3fmt9Formatter12pad_integral17h4c381d3da2db2768E+0x1a8>  // b.none
   82a50:	aa1303e0 	mov	x0, x19
   82a54:	2a1803e1 	mov	w1, w24
   82a58:	aa1703e2 	mov	x2, x23
   82a5c:	aa1603e3 	mov	x3, x22
   82a60:	94000044 	bl	82b70 <_ZN4core3fmt9Formatter12pad_integral12write_prefix17h828c4f1b581ccd5fE>
   82a64:	3707f7a0 	tbnz	w0, #0, 82958 <_ZN4core3fmt9Formatter12pad_integral17h4c381d3da2db2768E+0x1a8>
   82a68:	a9422260 	ldp	x0, x8, [x19, #32]
   82a6c:	aa1503e1 	mov	x1, x21
   82a70:	aa1403e2 	mov	x2, x20
   82a74:	f9400d08 	ldr	x8, [x8, #24]
   82a78:	d63f0100 	blr	x8
   82a7c:	3707f6e0 	tbnz	w0, #0, 82958 <_ZN4core3fmt9Formatter12pad_integral17h4c381d3da2db2768E+0x1a8>
   82a80:	a9424e74 	ldp	x20, x19, [x19, #32]
   82a84:	aa1f03f5 	mov	x21, xzr
   82a88:	eb15035f 	cmp	x26, x21
   82a8c:	540006a0 	b.eq	82b60 <_ZN4core3fmt9Formatter12pad_integral17h4c381d3da2db2768E+0x3b0>  // b.none
   82a90:	f9401268 	ldr	x8, [x19, #32]
   82a94:	aa1403e0 	mov	x0, x20
   82a98:	2a1903e1 	mov	w1, w25
   82a9c:	910006b5 	add	x21, x21, #0x1
   82aa0:	d63f0100 	blr	x8
   82aa4:	34ffff20 	cbz	w0, 82a88 <_ZN4core3fmt9Formatter12pad_integral17h4c381d3da2db2768E+0x2d8>
   82aa8:	d10006a8 	sub	x8, x21, #0x1
   82aac:	1400002e 	b	82b64 <_ZN4core3fmt9Formatter12pad_integral17h4c381d3da2db2768E+0x3b4>
   82ab0:	aa1c03f8 	mov	x24, x28
   82ab4:	aa1f03fc 	mov	x28, xzr
   82ab8:	14000005 	b	82acc <_ZN4core3fmt9Formatter12pad_integral17h4c381d3da2db2768E+0x31c>
   82abc:	d341ff88 	lsr	x8, x28, #1
   82ac0:	91000789 	add	x9, x28, #0x1
   82ac4:	aa0803fc 	mov	x28, x8
   82ac8:	d341fd38 	lsr	x24, x9, #1
   82acc:	a9426677 	ldp	x23, x25, [x19, #32]
   82ad0:	9100079c 	add	x28, x28, #0x1
   82ad4:	b9403676 	ldr	w22, [x19, #52]
   82ad8:	f100079c 	subs	x28, x28, #0x1
   82adc:	540000e0 	b.eq	82af8 <_ZN4core3fmt9Formatter12pad_integral17h4c381d3da2db2768E+0x348>  // b.none
   82ae0:	f9401328 	ldr	x8, [x25, #32]
   82ae4:	aa1703e0 	mov	x0, x23
   82ae8:	2a1603e1 	mov	w1, w22
   82aec:	d63f0100 	blr	x8
   82af0:	3607ff40 	tbz	w0, #0, 82ad8 <_ZN4core3fmt9Formatter12pad_integral17h4c381d3da2db2768E+0x328>
   82af4:	17ffff99 	b	82958 <_ZN4core3fmt9Formatter12pad_integral17h4c381d3da2db2768E+0x1a8>
   82af8:	714442df 	cmp	w22, #0x110, lsl #12
   82afc:	9a9803f7 	csel	x23, xzr, x24, eq  // eq = none
   82b00:	54fff2c0 	b.eq	82958 <_ZN4core3fmt9Formatter12pad_integral17h4c381d3da2db2768E+0x1a8>  // b.none
   82b04:	a9422260 	ldp	x0, x8, [x19, #32]
   82b08:	aa1503e1 	mov	x1, x21
   82b0c:	aa1403e2 	mov	x2, x20
   82b10:	f9400d08 	ldr	x8, [x8, #24]
   82b14:	d63f0100 	blr	x8
   82b18:	3707f200 	tbnz	w0, #0, 82958 <_ZN4core3fmt9Formatter12pad_integral17h4c381d3da2db2768E+0x1a8>
   82b1c:	a9425674 	ldp	x20, x21, [x19, #32]
   82b20:	aa1f03f8 	mov	x24, xzr
   82b24:	eb1802ff 	cmp	x23, x24
   82b28:	54000140 	b.eq	82b50 <_ZN4core3fmt9Formatter12pad_integral17h4c381d3da2db2768E+0x3a0>  // b.none
   82b2c:	f94012a8 	ldr	x8, [x21, #32]
   82b30:	aa1403e0 	mov	x0, x20
   82b34:	2a1603e1 	mov	w1, w22
   82b38:	91000718 	add	x24, x24, #0x1
   82b3c:	d63f0100 	blr	x8
   82b40:	34ffff20 	cbz	w0, 82b24 <_ZN4core3fmt9Formatter12pad_integral17h4c381d3da2db2768E+0x374>
   82b44:	d1000708 	sub	x8, x24, #0x1
   82b48:	eb17011f 	cmp	x8, x23
   82b4c:	54fff063 	b.cc	82958 <_ZN4core3fmt9Formatter12pad_integral17h4c381d3da2db2768E+0x1a8>  // b.lo, b.ul, b.last
   82b50:	2a1f03f9 	mov	w25, wzr
   82b54:	b900367a 	str	w26, [x19, #52]
   82b58:	3900e27b 	strb	w27, [x19, #56]
   82b5c:	17ffff80 	b	8295c <_ZN4core3fmt9Formatter12pad_integral17h4c381d3da2db2768E+0x1ac>
   82b60:	aa1a03e8 	mov	x8, x26
   82b64:	eb1a011f 	cmp	x8, x26
   82b68:	1a9f27f9 	cset	w25, cc  // cc = lo, ul, last
   82b6c:	17ffff7c 	b	8295c <_ZN4core3fmt9Formatter12pad_integral17h4c381d3da2db2768E+0x1ac>

0000000000082b70 <_ZN4core3fmt9Formatter12pad_integral12write_prefix17h828c4f1b581ccd5fE>:
   82b70:	a9be57fe 	stp	x30, x21, [sp, #-32]!
   82b74:	a9014ff4 	stp	x20, x19, [sp, #16]
   82b78:	aa0303f3 	mov	x19, x3
   82b7c:	aa0203f4 	mov	x20, x2
   82b80:	aa0003f5 	mov	x21, x0
   82b84:	7144403f 	cmp	w1, #0x110, lsl #12
   82b88:	54000120 	b.eq	82bac <_ZN4core3fmt9Formatter12pad_integral12write_prefix17h828c4f1b581ccd5fE+0x3c>  // b.none
   82b8c:	a94222a0 	ldp	x0, x8, [x21, #32]
   82b90:	f9401108 	ldr	x8, [x8, #32]
   82b94:	d63f0100 	blr	x8
   82b98:	360000a0 	tbz	w0, #0, 82bac <_ZN4core3fmt9Formatter12pad_integral12write_prefix17h828c4f1b581ccd5fE+0x3c>
   82b9c:	52800020 	mov	w0, #0x1                   	// #1
   82ba0:	a9414ff4 	ldp	x20, x19, [sp, #16]
   82ba4:	a8c257fe 	ldp	x30, x21, [sp], #32
   82ba8:	d65f03c0 	ret
   82bac:	b4000114 	cbz	x20, 82bcc <_ZN4core3fmt9Formatter12pad_integral12write_prefix17h828c4f1b581ccd5fE+0x5c>
   82bb0:	a94222a0 	ldp	x0, x8, [x21, #32]
   82bb4:	aa1403e1 	mov	x1, x20
   82bb8:	aa1303e2 	mov	x2, x19
   82bbc:	a9414ff4 	ldp	x20, x19, [sp, #16]
   82bc0:	f9400d03 	ldr	x3, [x8, #24]
   82bc4:	a8c257fe 	ldp	x30, x21, [sp], #32
   82bc8:	d61f0060 	br	x3
   82bcc:	2a1f03e0 	mov	w0, wzr
   82bd0:	a9414ff4 	ldp	x20, x19, [sp, #16]
   82bd4:	a8c257fe 	ldp	x30, x21, [sp], #32
   82bd8:	d65f03c0 	ret
   82bdc:	00000000 	.inst	0x00000000 ; undefined

0000000000082be0 <_ZN4core3fmt9Formatter3pad17h878fee43bbd7a693E>:
   82be0:	a9bc67fe 	stp	x30, x25, [sp, #-64]!
   82be4:	f9400008 	ldr	x8, [x0]
   82be8:	f9400809 	ldr	x9, [x0, #16]
   82bec:	a9034ff4 	stp	x20, x19, [sp, #48]
   82bf0:	aa0203f3 	mov	x19, x2
   82bf4:	aa0103f4 	mov	x20, x1
   82bf8:	a9015ff8 	stp	x24, x23, [sp, #16]
   82bfc:	f100051f 	cmp	x8, #0x1
   82c00:	a90257f6 	stp	x22, x21, [sp, #32]
   82c04:	54000081 	b.ne	82c14 <_ZN4core3fmt9Formatter3pad17h878fee43bbd7a693E+0x34>  // b.any
   82c08:	f100053f 	cmp	x9, #0x1
   82c0c:	54000080 	b.eq	82c1c <_ZN4core3fmt9Formatter3pad17h878fee43bbd7a693E+0x3c>  // b.none
   82c10:	1400007e 	b	82e08 <_ZN4core3fmt9Formatter3pad17h878fee43bbd7a693E+0x228>
   82c14:	f100053f 	cmp	x9, #0x1
   82c18:	540017a1 	b.ne	82f0c <_ZN4core3fmt9Formatter3pad17h878fee43bbd7a693E+0x32c>  // b.any
   82c1c:	f9400c0b 	ldr	x11, [x0, #24]
   82c20:	8b13028a 	add	x10, x20, x19
   82c24:	aa1f03e9 	mov	x9, xzr
   82c28:	b400078b 	cbz	x11, 82d18 <_ZN4core3fmt9Formatter3pad17h878fee43bbd7a693E+0x138>
   82c2c:	aa1403ed 	mov	x13, x20
   82c30:	1400000a 	b	82c58 <_ZN4core3fmt9Formatter3pad17h878fee43bbd7a693E+0x78>
   82c34:	38401591 	ldrb	w17, [x12], #1
   82c38:	12001631 	and	w17, w17, #0x3f
   82c3c:	530e09ef 	ubfiz	w15, w15, #18, #3
   82c40:	331415cf 	bfi	w15, w14, #12, #6
   82c44:	331a160f 	bfi	w15, w16, #6, #6
   82c48:	2a1101ee 	orr	w14, w15, w17
   82c4c:	714441df 	cmp	w14, #0x110, lsl #12
   82c50:	54000541 	b.ne	82cf8 <_ZN4core3fmt9Formatter3pad17h878fee43bbd7a693E+0x118>  // b.any
   82c54:	1400006b 	b	82e00 <_ZN4core3fmt9Formatter3pad17h878fee43bbd7a693E+0x220>
   82c58:	eb0a01bf 	cmp	x13, x10
   82c5c:	54000d20 	b.eq	82e00 <_ZN4core3fmt9Formatter3pad17h878fee43bbd7a693E+0x220>  // b.none
   82c60:	aa0d03ec 	mov	x12, x13
   82c64:	38c0158f 	ldrsb	w15, [x12], #1
   82c68:	36f8048f 	tbz	w15, #31, 82cf8 <_ZN4core3fmt9Formatter3pad17h878fee43bbd7a693E+0x118>
   82c6c:	eb0a019f 	cmp	x12, x10
   82c70:	54000100 	b.eq	82c90 <_ZN4core3fmt9Formatter3pad17h878fee43bbd7a693E+0xb0>  // b.none
   82c74:	394005ae 	ldrb	w14, [x13, #1]
   82c78:	910009ac 	add	x12, x13, #0x2
   82c7c:	120015ce 	and	w14, w14, #0x3f
   82c80:	12001def 	and	w15, w15, #0xff
   82c84:	710381ff 	cmp	w15, #0xe0
   82c88:	540000e2 	b.cs	82ca4 <_ZN4core3fmt9Formatter3pad17h878fee43bbd7a693E+0xc4>  // b.hs, b.nlast
   82c8c:	1400001b 	b	82cf8 <_ZN4core3fmt9Formatter3pad17h878fee43bbd7a693E+0x118>
   82c90:	2a1f03ee 	mov	w14, wzr
   82c94:	aa0a03ec 	mov	x12, x10
   82c98:	12001def 	and	w15, w15, #0xff
   82c9c:	710381ff 	cmp	w15, #0xe0
   82ca0:	540002c3 	b.cc	82cf8 <_ZN4core3fmt9Formatter3pad17h878fee43bbd7a693E+0x118>  // b.lo, b.ul, b.last
   82ca4:	eb0a019f 	cmp	x12, x10
   82ca8:	540000c0 	b.eq	82cc0 <_ZN4core3fmt9Formatter3pad17h878fee43bbd7a693E+0xe0>  // b.none
   82cac:	38401590 	ldrb	w16, [x12], #1
   82cb0:	12001610 	and	w16, w16, #0x3f
   82cb4:	7103c1ff 	cmp	w15, #0xf0
   82cb8:	540000c2 	b.cs	82cd0 <_ZN4core3fmt9Formatter3pad17h878fee43bbd7a693E+0xf0>  // b.hs, b.nlast
   82cbc:	1400000f 	b	82cf8 <_ZN4core3fmt9Formatter3pad17h878fee43bbd7a693E+0x118>
   82cc0:	2a1f03f0 	mov	w16, wzr
   82cc4:	aa0a03ec 	mov	x12, x10
   82cc8:	7103c1ff 	cmp	w15, #0xf0
   82ccc:	54000163 	b.cc	82cf8 <_ZN4core3fmt9Formatter3pad17h878fee43bbd7a693E+0x118>  // b.lo, b.ul, b.last
   82cd0:	eb0a019f 	cmp	x12, x10
   82cd4:	54fffb01 	b.ne	82c34 <_ZN4core3fmt9Formatter3pad17h878fee43bbd7a693E+0x54>  // b.any
   82cd8:	2a1f03f1 	mov	w17, wzr
   82cdc:	aa0a03ec 	mov	x12, x10
   82ce0:	530e09ef 	ubfiz	w15, w15, #18, #3
   82ce4:	331415cf 	bfi	w15, w14, #12, #6
   82ce8:	331a160f 	bfi	w15, w16, #6, #6
   82cec:	2a1101ee 	orr	w14, w15, w17
   82cf0:	714441df 	cmp	w14, #0x110, lsl #12
   82cf4:	54000860 	b.eq	82e00 <_ZN4core3fmt9Formatter3pad17h878fee43bbd7a693E+0x220>  // b.none
   82cf8:	cb0d0129 	sub	x9, x9, x13
   82cfc:	f100056b 	subs	x11, x11, #0x1
   82d00:	8b0c0129 	add	x9, x9, x12
   82d04:	aa0c03ed 	mov	x13, x12
   82d08:	54fffa81 	b.ne	82c58 <_ZN4core3fmt9Formatter3pad17h878fee43bbd7a693E+0x78>  // b.any
   82d0c:	eb0a019f 	cmp	x12, x10
   82d10:	540000a1 	b.ne	82d24 <_ZN4core3fmt9Formatter3pad17h878fee43bbd7a693E+0x144>  // b.any
   82d14:	1400003b 	b	82e00 <_ZN4core3fmt9Formatter3pad17h878fee43bbd7a693E+0x220>
   82d18:	aa1403ec 	mov	x12, x20
   82d1c:	eb0a019f 	cmp	x12, x10
   82d20:	54000700 	b.eq	82e00 <_ZN4core3fmt9Formatter3pad17h878fee43bbd7a693E+0x220>  // b.none
   82d24:	aa0c03ed 	mov	x13, x12
   82d28:	38c015ab 	ldrsb	w11, [x13], #1
   82d2c:	36f804cb 	tbz	w11, #31, 82dc4 <_ZN4core3fmt9Formatter3pad17h878fee43bbd7a693E+0x1e4>
   82d30:	12001d6b 	and	w11, w11, #0xff
   82d34:	eb0a01bf 	cmp	x13, x10
   82d38:	54000100 	b.eq	82d58 <_ZN4core3fmt9Formatter3pad17h878fee43bbd7a693E+0x178>  // b.none
   82d3c:	3940058e 	ldrb	w14, [x12, #1]
   82d40:	9100098d 	add	x13, x12, #0x2
   82d44:	120015cc 	and	w12, w14, #0x3f
   82d48:	531a658c 	lsl	w12, w12, #6
   82d4c:	7103817f 	cmp	w11, #0xe0
   82d50:	540000c2 	b.cs	82d68 <_ZN4core3fmt9Formatter3pad17h878fee43bbd7a693E+0x188>  // b.hs, b.nlast
   82d54:	1400001c 	b	82dc4 <_ZN4core3fmt9Formatter3pad17h878fee43bbd7a693E+0x1e4>
   82d58:	2a1f03ec 	mov	w12, wzr
   82d5c:	aa0a03ed 	mov	x13, x10
   82d60:	7103817f 	cmp	w11, #0xe0
   82d64:	54000303 	b.cc	82dc4 <_ZN4core3fmt9Formatter3pad17h878fee43bbd7a693E+0x1e4>  // b.lo, b.ul, b.last
   82d68:	eb0a01bf 	cmp	x13, x10
   82d6c:	540000c0 	b.eq	82d84 <_ZN4core3fmt9Formatter3pad17h878fee43bbd7a693E+0x1a4>  // b.none
   82d70:	384015ae 	ldrb	w14, [x13], #1
   82d74:	120015ce 	and	w14, w14, #0x3f
   82d78:	7103c17f 	cmp	w11, #0xf0
   82d7c:	540000c2 	b.cs	82d94 <_ZN4core3fmt9Formatter3pad17h878fee43bbd7a693E+0x1b4>  // b.hs, b.nlast
   82d80:	14000011 	b	82dc4 <_ZN4core3fmt9Formatter3pad17h878fee43bbd7a693E+0x1e4>
   82d84:	2a1f03ee 	mov	w14, wzr
   82d88:	aa0a03ed 	mov	x13, x10
   82d8c:	7103c17f 	cmp	w11, #0xf0
   82d90:	540001a3 	b.cc	82dc4 <_ZN4core3fmt9Formatter3pad17h878fee43bbd7a693E+0x1e4>  // b.lo, b.ul, b.last
   82d94:	2a0c01cc 	orr	w12, w14, w12
   82d98:	eb0a01bf 	cmp	x13, x10
   82d9c:	54000080 	b.eq	82dac <_ZN4core3fmt9Formatter3pad17h878fee43bbd7a693E+0x1cc>  // b.none
   82da0:	394001aa 	ldrb	w10, [x13]
   82da4:	1200154a 	and	w10, w10, #0x3f
   82da8:	14000002 	b	82db0 <_ZN4core3fmt9Formatter3pad17h878fee43bbd7a693E+0x1d0>
   82dac:	2a1f03ea 	mov	w10, wzr
   82db0:	530e096b 	ubfiz	w11, w11, #18, #3
   82db4:	331a2d8b 	bfi	w11, w12, #6, #12
   82db8:	2a0a016a 	orr	w10, w11, w10
   82dbc:	7144415f 	cmp	w10, #0x110, lsl #12
   82dc0:	54000200 	b.eq	82e00 <_ZN4core3fmt9Formatter3pad17h878fee43bbd7a693E+0x220>  // b.none
   82dc4:	b4000169 	cbz	x9, 82df0 <_ZN4core3fmt9Formatter3pad17h878fee43bbd7a693E+0x210>
   82dc8:	eb13013f 	cmp	x9, x19
   82dcc:	540000e2 	b.cs	82de8 <_ZN4core3fmt9Formatter3pad17h878fee43bbd7a693E+0x208>  // b.hs, b.nlast
   82dd0:	38e96a8a 	ldrsb	w10, [x20, x9]
   82dd4:	3101015f 	cmn	w10, #0x40
   82dd8:	540000ca 	b.ge	82df0 <_ZN4core3fmt9Formatter3pad17h878fee43bbd7a693E+0x210>  // b.tcont
   82ddc:	aa1f03ea 	mov	x10, xzr
   82de0:	aa1f03e9 	mov	x9, xzr
   82de4:	14000004 	b	82df4 <_ZN4core3fmt9Formatter3pad17h878fee43bbd7a693E+0x214>
   82de8:	eb13013f 	cmp	x9, x19
   82dec:	54ffff81 	b.ne	82ddc <_ZN4core3fmt9Formatter3pad17h878fee43bbd7a693E+0x1fc>  // b.any
   82df0:	aa1403ea 	mov	x10, x20
   82df4:	f100015f 	cmp	x10, #0x0
   82df8:	9a8a0294 	csel	x20, x20, x10, eq  // eq = none
   82dfc:	9a890273 	csel	x19, x19, x9, eq  // eq = none
   82e00:	f100051f 	cmp	x8, #0x1
   82e04:	54000841 	b.ne	82f0c <_ZN4core3fmt9Formatter3pad17h878fee43bbd7a693E+0x32c>  // b.any
   82e08:	f9400408 	ldr	x8, [x0, #8]
   82e0c:	b40000d3 	cbz	x19, 82e24 <_ZN4core3fmt9Formatter3pad17h878fee43bbd7a693E+0x244>
   82e10:	f100127f 	cmp	x19, #0x4
   82e14:	540000c2 	b.cs	82e2c <_ZN4core3fmt9Formatter3pad17h878fee43bbd7a693E+0x24c>  // b.hs, b.nlast
   82e18:	aa1f03eb 	mov	x11, xzr
   82e1c:	aa1403e9 	mov	x9, x20
   82e20:	14000029 	b	82ec4 <_ZN4core3fmt9Formatter3pad17h878fee43bbd7a693E+0x2e4>
   82e24:	aa1f03eb 	mov	x11, xzr
   82e28:	1400002e 	b	82ee0 <_ZN4core3fmt9Formatter3pad17h878fee43bbd7a693E+0x300>
   82e2c:	6f00e400 	movi	v0.2d, #0x0
   82e30:	52800029 	mov	w9, #0x1                   	// #1
   82e34:	0f060401 	movi	v1.2s, #0xc0
   82e38:	927ef66a 	and	x10, x19, #0xfffffffffffffffc
   82e3c:	0f040402 	movi	v2.2s, #0x80
   82e40:	91000a8b 	add	x11, x20, #0x2
   82e44:	4e080d23 	dup	v3.2d, x9
   82e48:	8b0a0289 	add	x9, x20, x10
   82e4c:	aa0a03ec 	mov	x12, x10
   82e50:	4ea01c04 	mov	v4.16b, v0.16b
   82e54:	385fe16d 	ldurb	w13, [x11, #-2]
   82e58:	f100118c 	subs	x12, x12, #0x4
   82e5c:	3940016e 	ldrb	w14, [x11]
   82e60:	385ff16f 	ldurb	w15, [x11, #-1]
   82e64:	1e2701a5 	fmov	s5, w13
   82e68:	3940056d 	ldrb	w13, [x11, #1]
   82e6c:	1e2701c6 	fmov	s6, w14
   82e70:	9100116b 	add	x11, x11, #0x4
   82e74:	4e0c1de5 	mov	v5.s[1], w15
   82e78:	4e0c1da6 	mov	v6.s[1], w13
   82e7c:	0e211ca5 	and	v5.8b, v5.8b, v1.8b
   82e80:	0e211cc6 	and	v6.8b, v6.8b, v1.8b
   82e84:	2ea28ca5 	cmeq	v5.2s, v5.2s, v2.2s
   82e88:	2ea28cc6 	cmeq	v6.2s, v6.2s, v2.2s
   82e8c:	2e2058a5 	mvn	v5.8b, v5.8b
   82e90:	2e2058c6 	mvn	v6.8b, v6.8b
   82e94:	2f20a4a5 	uxtl	v5.2d, v5.2s
   82e98:	2f20a4c6 	uxtl	v6.2d, v6.2s
   82e9c:	4e231ca5 	and	v5.16b, v5.16b, v3.16b
   82ea0:	4e231cc6 	and	v6.16b, v6.16b, v3.16b
   82ea4:	4ee58400 	add	v0.2d, v0.2d, v5.2d
   82ea8:	4ee68484 	add	v4.2d, v4.2d, v6.2d
   82eac:	54fffd41 	b.ne	82e54 <_ZN4core3fmt9Formatter3pad17h878fee43bbd7a693E+0x274>  // b.any
   82eb0:	4ee08480 	add	v0.2d, v4.2d, v0.2d
   82eb4:	eb0a027f 	cmp	x19, x10
   82eb8:	5ef1b800 	addp	d0, v0.2d
   82ebc:	9e66000b 	fmov	x11, d0
   82ec0:	54000100 	b.eq	82ee0 <_ZN4core3fmt9Formatter3pad17h878fee43bbd7a693E+0x300>  // b.none
   82ec4:	8b13028a 	add	x10, x20, x19
   82ec8:	3840152c 	ldrb	w12, [x9], #1
   82ecc:	121a058c 	and	w12, w12, #0xc0
   82ed0:	7102019f 	cmp	w12, #0x80
   82ed4:	9a8b056b 	cinc	x11, x11, ne  // ne = any
   82ed8:	eb0a013f 	cmp	x9, x10
   82edc:	54ffff61 	b.ne	82ec8 <_ZN4core3fmt9Formatter3pad17h878fee43bbd7a693E+0x2e8>  // b.any
   82ee0:	eb0b0108 	subs	x8, x8, x11
   82ee4:	54000149 	b.ls	82f0c <_ZN4core3fmt9Formatter3pad17h878fee43bbd7a693E+0x32c>  // b.plast
   82ee8:	3940e009 	ldrb	w9, [x0, #56]
   82eec:	71000d3f 	cmp	w9, #0x3
   82ef0:	1a8903e9 	csel	w9, wzr, w9, eq  // eq = none
   82ef4:	72000529 	ands	w9, w9, #0x3
   82ef8:	540001e0 	b.eq	82f34 <_ZN4core3fmt9Formatter3pad17h878fee43bbd7a693E+0x354>  // b.none
   82efc:	7100053f 	cmp	w9, #0x1
   82f00:	54000201 	b.ne	82f40 <_ZN4core3fmt9Formatter3pad17h878fee43bbd7a693E+0x360>  // b.any
   82f04:	aa1f03f8 	mov	x24, xzr
   82f08:	14000012 	b	82f50 <_ZN4core3fmt9Formatter3pad17h878fee43bbd7a693E+0x370>
   82f0c:	a9422408 	ldp	x8, x9, [x0, #32]
   82f10:	aa1403e1 	mov	x1, x20
   82f14:	aa1303e2 	mov	x2, x19
   82f18:	a9434ff4 	ldp	x20, x19, [sp, #48]
   82f1c:	f9400d23 	ldr	x3, [x9, #24]
   82f20:	aa0803e0 	mov	x0, x8
   82f24:	a94257f6 	ldp	x22, x21, [sp, #32]
   82f28:	a9415ff8 	ldp	x24, x23, [sp, #16]
   82f2c:	a8c467fe 	ldp	x30, x25, [sp], #64
   82f30:	d61f0060 	br	x3
   82f34:	aa0803f8 	mov	x24, x8
   82f38:	aa1f03e8 	mov	x8, xzr
   82f3c:	14000005 	b	82f50 <_ZN4core3fmt9Formatter3pad17h878fee43bbd7a693E+0x370>
   82f40:	d341fd09 	lsr	x9, x8, #1
   82f44:	9100050a 	add	x10, x8, #0x1
   82f48:	aa0903e8 	mov	x8, x9
   82f4c:	d341fd58 	lsr	x24, x10, #1
   82f50:	a9425c15 	ldp	x21, x23, [x0, #32]
   82f54:	91000519 	add	x25, x8, #0x1
   82f58:	b9403416 	ldr	w22, [x0, #52]
   82f5c:	f1000739 	subs	x25, x25, #0x1
   82f60:	54000180 	b.eq	82f90 <_ZN4core3fmt9Formatter3pad17h878fee43bbd7a693E+0x3b0>  // b.none
   82f64:	f94012e8 	ldr	x8, [x23, #32]
   82f68:	aa1503e0 	mov	x0, x21
   82f6c:	2a1603e1 	mov	w1, w22
   82f70:	d63f0100 	blr	x8
   82f74:	3607ff40 	tbz	w0, #0, 82f5c <_ZN4core3fmt9Formatter3pad17h878fee43bbd7a693E+0x37c>
   82f78:	52800020 	mov	w0, #0x1                   	// #1
   82f7c:	a9434ff4 	ldp	x20, x19, [sp, #48]
   82f80:	a94257f6 	ldp	x22, x21, [sp, #32]
   82f84:	a9415ff8 	ldp	x24, x23, [sp, #16]
   82f88:	a8c467fe 	ldp	x30, x25, [sp], #64
   82f8c:	d65f03c0 	ret
   82f90:	714442df 	cmp	w22, #0x110, lsl #12
   82f94:	9a9803f8 	csel	x24, xzr, x24, eq  // eq = none
   82f98:	540000e1 	b.ne	82fb4 <_ZN4core3fmt9Formatter3pad17h878fee43bbd7a693E+0x3d4>  // b.any
   82f9c:	52800020 	mov	w0, #0x1                   	// #1
   82fa0:	a9434ff4 	ldp	x20, x19, [sp, #48]
   82fa4:	a94257f6 	ldp	x22, x21, [sp, #32]
   82fa8:	a9415ff8 	ldp	x24, x23, [sp, #16]
   82fac:	a8c467fe 	ldp	x30, x25, [sp], #64
   82fb0:	d65f03c0 	ret
   82fb4:	f9400ee8 	ldr	x8, [x23, #24]
   82fb8:	aa1503e0 	mov	x0, x21
   82fbc:	aa1403e1 	mov	x1, x20
   82fc0:	aa1303e2 	mov	x2, x19
   82fc4:	d63f0100 	blr	x8
   82fc8:	360000e0 	tbz	w0, #0, 82fe4 <_ZN4core3fmt9Formatter3pad17h878fee43bbd7a693E+0x404>
   82fcc:	52800020 	mov	w0, #0x1                   	// #1
   82fd0:	a9434ff4 	ldp	x20, x19, [sp, #48]
   82fd4:	a94257f6 	ldp	x22, x21, [sp, #32]
   82fd8:	a9415ff8 	ldp	x24, x23, [sp, #16]
   82fdc:	a8c467fe 	ldp	x30, x25, [sp], #64
   82fe0:	d65f03c0 	ret
   82fe4:	aa1f03f3 	mov	x19, xzr
   82fe8:	eb13031f 	cmp	x24, x19
   82fec:	54000120 	b.eq	83010 <_ZN4core3fmt9Formatter3pad17h878fee43bbd7a693E+0x430>  // b.none
   82ff0:	f94012e8 	ldr	x8, [x23, #32]
   82ff4:	aa1503e0 	mov	x0, x21
   82ff8:	2a1603e1 	mov	w1, w22
   82ffc:	91000673 	add	x19, x19, #0x1
   83000:	d63f0100 	blr	x8
   83004:	34ffff20 	cbz	w0, 82fe8 <_ZN4core3fmt9Formatter3pad17h878fee43bbd7a693E+0x408>
   83008:	d1000668 	sub	x8, x19, #0x1
   8300c:	14000002 	b	83014 <_ZN4core3fmt9Formatter3pad17h878fee43bbd7a693E+0x434>
   83010:	aa1803e8 	mov	x8, x24
   83014:	eb18011f 	cmp	x8, x24
   83018:	1a9f27e0 	cset	w0, cc  // cc = lo, ul, last
   8301c:	a9434ff4 	ldp	x20, x19, [sp, #48]
   83020:	a94257f6 	ldp	x22, x21, [sp, #32]
   83024:	a9415ff8 	ldp	x24, x23, [sp, #16]
   83028:	a8c467fe 	ldp	x30, x25, [sp], #64
   8302c:	d65f03c0 	ret

0000000000083030 <_ZN40_$LT$str$u20$as$u20$core..fmt..Debug$GT$3fmt17h5d87cdd23b341063E>:
   83030:	d10283ff 	sub	sp, sp, #0xa0
   83034:	a9094ff4 	stp	x20, x19, [sp, #144]
   83038:	a9422054 	ldp	x20, x8, [x2, #32]
   8303c:	a9047bfd 	stp	x29, x30, [sp, #64]
   83040:	a9056ffc 	stp	x28, x27, [sp, #80]
   83044:	f9401102 	ldr	x2, [x8, #32]
   83048:	a90207e8 	stp	x8, x1, [sp, #32]
   8304c:	52800441 	mov	w1, #0x22                  	// #34
   83050:	a90667fa 	stp	x26, x25, [sp, #96]
   83054:	a9075ff8 	stp	x24, x23, [sp, #112]
   83058:	a9030be0 	stp	x0, x2, [sp, #48]
   8305c:	aa1403e0 	mov	x0, x20
   83060:	a90857f6 	stp	x22, x21, [sp, #128]
   83064:	d63f0040 	blr	x2
   83068:	36000140 	tbz	w0, #0, 83090 <_ZN40_$LT$str$u20$as$u20$core..fmt..Debug$GT$3fmt17h5d87cdd23b341063E+0x60>
   8306c:	a9494ff4 	ldp	x20, x19, [sp, #144]
   83070:	52800020 	mov	w0, #0x1                   	// #1
   83074:	a94857f6 	ldp	x22, x21, [sp, #128]
   83078:	a9475ff8 	ldp	x24, x23, [sp, #112]
   8307c:	a94667fa 	ldp	x26, x25, [sp, #96]
   83080:	a9456ffc 	ldp	x28, x27, [sp, #80]
   83084:	a9447bfd 	ldp	x29, x30, [sp, #64]
   83088:	910283ff 	add	sp, sp, #0xa0
   8308c:	d65f03c0 	ret
   83090:	f94017eb 	ldr	x11, [sp, #40]
   83094:	b40026cb 	cbz	x11, 8356c <_ZN40_$LT$str$u20$as$u20$core..fmt..Debug$GT$3fmt17h5d87cdd23b341063E+0x53c>
   83098:	f9401be8 	ldr	x8, [sp, #48]
   8309c:	f000001c 	adrp	x28, 86000 <_ZN4core7unicode12unicode_data15grapheme_extend7OFFSETS17h43cbc87acfaf4d34E.llvm.111400220230659385+0x98>
   830a0:	f000000c 	adrp	x12, 86000 <_ZN4core7unicode12unicode_data15grapheme_extend7OFFSETS17h43cbc87acfaf4d34E.llvm.111400220230659385+0x98>
   830a4:	aa1f03f8 	mov	x24, xzr
   830a8:	aa1f03f5 	mov	x21, xzr
   830ac:	52800e96 	mov	w22, #0x74                  	// #116
   830b0:	91282b9c 	add	x28, x28, #0xa0a
   830b4:	52800b9d 	mov	w29, #0x5c                  	// #92
   830b8:	8b0b011a 	add	x26, x8, x11
   830bc:	aa0803e9 	mov	x9, x8
   830c0:	aa0803ea 	mov	x10, x8
   830c4:	9127c18c 	add	x12, x12, #0x9f0
   830c8:	f90007fa 	str	x26, [sp, #8]
   830cc:	aa0a03e8 	mov	x8, x10
   830d0:	f9000be9 	str	x9, [sp, #16]
   830d4:	38c01509 	ldrsb	w9, [x8], #1
   830d8:	12001d20 	and	w0, w9, #0xff
   830dc:	37f80069 	tbnz	w9, #31, 830e8 <_ZN40_$LT$str$u20$as$u20$core..fmt..Debug$GT$3fmt17h5d87cdd23b341063E+0xb8>
   830e0:	aa0803ed 	mov	x13, x8
   830e4:	1400002c 	b	83194 <_ZN40_$LT$str$u20$as$u20$core..fmt..Debug$GT$3fmt17h5d87cdd23b341063E+0x164>
   830e8:	eb1a011f 	cmp	x8, x26
   830ec:	54000260 	b.eq	83138 <_ZN40_$LT$str$u20$as$u20$core..fmt..Debug$GT$3fmt17h5d87cdd23b341063E+0x108>  // b.none
   830f0:	39400548 	ldrb	w8, [x10, #1]
   830f4:	9100094d 	add	x13, x10, #0x2
   830f8:	1200150a 	and	w10, w8, #0x3f
   830fc:	12001008 	and	w8, w0, #0x1f
   83100:	71037c1f 	cmp	w0, #0xdf
   83104:	54000249 	b.ls	8314c <_ZN40_$LT$str$u20$as$u20$core..fmt..Debug$GT$3fmt17h5d87cdd23b341063E+0x11c>  // b.plast
   83108:	eb1a01bf 	cmp	x13, x26
   8310c:	54000260 	b.eq	83158 <_ZN40_$LT$str$u20$as$u20$core..fmt..Debug$GT$3fmt17h5d87cdd23b341063E+0x128>  // b.none
   83110:	384015a9 	ldrb	w9, [x13], #1
   83114:	12001529 	and	w9, w9, #0x3f
   83118:	331a1549 	bfi	w9, w10, #6, #6
   8311c:	7103c01f 	cmp	w0, #0xf0
   83120:	54000263 	b.cc	8316c <_ZN40_$LT$str$u20$as$u20$core..fmt..Debug$GT$3fmt17h5d87cdd23b341063E+0x13c>  // b.lo, b.ul, b.last
   83124:	eb1a01bf 	cmp	x13, x26
   83128:	54000280 	b.eq	83178 <_ZN40_$LT$str$u20$as$u20$core..fmt..Debug$GT$3fmt17h5d87cdd23b341063E+0x148>  // b.none
   8312c:	384015aa 	ldrb	w10, [x13], #1
   83130:	1200154a 	and	w10, w10, #0x3f
   83134:	14000013 	b	83180 <_ZN40_$LT$str$u20$as$u20$core..fmt..Debug$GT$3fmt17h5d87cdd23b341063E+0x150>
   83138:	2a1f03ea 	mov	w10, wzr
   8313c:	aa1a03ed 	mov	x13, x26
   83140:	12001008 	and	w8, w0, #0x1f
   83144:	71037c1f 	cmp	w0, #0xdf
   83148:	54fffe08 	b.hi	83108 <_ZN40_$LT$str$u20$as$u20$core..fmt..Debug$GT$3fmt17h5d87cdd23b341063E+0xd8>  // b.pmore
   8314c:	331a110a 	bfi	w10, w8, #6, #5
   83150:	2a0a03e0 	mov	w0, w10
   83154:	14000010 	b	83194 <_ZN40_$LT$str$u20$as$u20$core..fmt..Debug$GT$3fmt17h5d87cdd23b341063E+0x164>
   83158:	2a1f03e9 	mov	w9, wzr
   8315c:	aa1a03ed 	mov	x13, x26
   83160:	331a1549 	bfi	w9, w10, #6, #6
   83164:	7103c01f 	cmp	w0, #0xf0
   83168:	54fffde2 	b.cs	83124 <_ZN40_$LT$str$u20$as$u20$core..fmt..Debug$GT$3fmt17h5d87cdd23b341063E+0xf4>  // b.hs, b.nlast
   8316c:	33141109 	bfi	w9, w8, #12, #5
   83170:	2a0903e0 	mov	w0, w9
   83174:	14000008 	b	83194 <_ZN40_$LT$str$u20$as$u20$core..fmt..Debug$GT$3fmt17h5d87cdd23b341063E+0x164>
   83178:	2a1f03ea 	mov	w10, wzr
   8317c:	aa1a03ed 	mov	x13, x26
   83180:	530e0908 	ubfiz	w8, w8, #18, #3
   83184:	331a2d28 	bfi	w8, w9, #6, #12
   83188:	2a0a0100 	orr	w0, w8, w10
   8318c:	7144401f 	cmp	w0, #0x110, lsl #12
   83190:	54001dc0 	b.eq	83548 <_ZN40_$LT$str$u20$as$u20$core..fmt..Debug$GT$3fmt17h5d87cdd23b341063E+0x518>  // b.none
   83194:	51002408 	sub	w8, w0, #0x9
   83198:	b9001fe0 	str	w0, [sp, #28]
   8319c:	7100651f 	cmp	w8, #0x19
   831a0:	54000148 	b.hi	831c8 <_ZN40_$LT$str$u20$as$u20$core..fmt..Debug$GT$3fmt17h5d87cdd23b341063E+0x198>  // b.pmore
   831a4:	100000c9 	adr	x9, 831bc <_ZN40_$LT$str$u20$as$u20$core..fmt..Debug$GT$3fmt17h5d87cdd23b341063E+0x18c>
   831a8:	3868698a 	ldrb	w10, [x12, x8]
   831ac:	8b0a0929 	add	x9, x9, x10, lsl #2
   831b0:	52800053 	mov	w19, #0x2                   	// #2
   831b4:	2a1603f7 	mov	w23, w22
   831b8:	d61f0120 	br	x9
   831bc:	52800053 	mov	w19, #0x2                   	// #2
   831c0:	52800dd7 	mov	w23, #0x6e                  	// #110
   831c4:	14000069 	b	83368 <_ZN40_$LT$str$u20$as$u20$core..fmt..Debug$GT$3fmt17h5d87cdd23b341063E+0x338>
   831c8:	7101701f 	cmp	w0, #0x5c
   831cc:	54000081 	b.ne	831dc <_ZN40_$LT$str$u20$as$u20$core..fmt..Debug$GT$3fmt17h5d87cdd23b341063E+0x1ac>  // b.any
   831d0:	52800053 	mov	w19, #0x2                   	// #2
   831d4:	2a0003f7 	mov	w23, w0
   831d8:	14000064 	b	83368 <_ZN40_$LT$str$u20$as$u20$core..fmt..Debug$GT$3fmt17h5d87cdd23b341063E+0x338>
   831dc:	f90003ed 	str	x13, [sp]
   831e0:	97fff7e8 	bl	81180 <_ZN4core7unicode12unicode_data15grapheme_extend6lookup17h4c3fb151a65b2097E>
   831e4:	b9401fea 	ldr	w10, [sp, #28]
   831e8:	37000ac0 	tbnz	w0, #0, 83340 <_ZN40_$LT$str$u20$as$u20$core..fmt..Debug$GT$3fmt17h5d87cdd23b341063E+0x310>
   831ec:	7140415f 	cmp	w10, #0x10, lsl #12
   831f0:	54000242 	b.cs	83238 <_ZN40_$LT$str$u20$as$u20$core..fmt..Debug$GT$3fmt17h5d87cdd23b341063E+0x208>  // b.hs, b.nlast
   831f4:	f0000001 	adrp	x1, 86000 <_ZN4core7unicode12unicode_data15grapheme_extend7OFFSETS17h43cbc87acfaf4d34E.llvm.111400220230659385+0x98>
   831f8:	f0000003 	adrp	x3, 86000 <_ZN4core7unicode12unicode_data15grapheme_extend7OFFSETS17h43cbc87acfaf4d34E.llvm.111400220230659385+0x98>
   831fc:	f0000005 	adrp	x5, 86000 <_ZN4core7unicode12unicode_data15grapheme_extend7OFFSETS17h43cbc87acfaf4d34E.llvm.111400220230659385+0x98>
   83200:	2a0a03e0 	mov	w0, w10
   83204:	910b2021 	add	x1, x1, #0x2c8
   83208:	52800522 	mov	w2, #0x29                  	// #41
   8320c:	910c6863 	add	x3, x3, #0x31a
   83210:	52802444 	mov	w4, #0x122                 	// #290
   83214:	9110f0a5 	add	x5, x5, #0x43c
   83218:	528026a6 	mov	w6, #0x135                 	// #309
   8321c:	97fff979 	bl	81800 <_ZN4core7unicode9printable5check17h12f0cec41989e29fE.llvm.2339018429671269780>
   83220:	b9401fea 	ldr	w10, [sp, #28]
   83224:	360008e0 	tbz	w0, #0, 83340 <_ZN40_$LT$str$u20$as$u20$core..fmt..Debug$GT$3fmt17h5d87cdd23b341063E+0x310>
   83228:	1400003b 	b	83314 <_ZN40_$LT$str$u20$as$u20$core..fmt..Debug$GT$3fmt17h5d87cdd23b341063E+0x2e4>
   8322c:	52800053 	mov	w19, #0x2                   	// #2
   83230:	52800e57 	mov	w23, #0x72                  	// #114
   83234:	1400004d 	b	83368 <_ZN40_$LT$str$u20$as$u20$core..fmt..Debug$GT$3fmt17h5d87cdd23b341063E+0x338>
   83238:	7140815f 	cmp	w10, #0x20, lsl #12
   8323c:	540001e2 	b.cs	83278 <_ZN40_$LT$str$u20$as$u20$core..fmt..Debug$GT$3fmt17h5d87cdd23b341063E+0x248>  // b.hs, b.nlast
   83240:	f0000001 	adrp	x1, 86000 <_ZN4core7unicode12unicode_data15grapheme_extend7OFFSETS17h43cbc87acfaf4d34E.llvm.111400220230659385+0x98>
   83244:	f0000003 	adrp	x3, 86000 <_ZN4core7unicode12unicode_data15grapheme_extend7OFFSETS17h43cbc87acfaf4d34E.llvm.111400220230659385+0x98>
   83248:	f0000005 	adrp	x5, 86000 <_ZN4core7unicode12unicode_data15grapheme_extend7OFFSETS17h43cbc87acfaf4d34E.llvm.111400220230659385+0x98>
   8324c:	2a0a03e0 	mov	w0, w10
   83250:	9115c421 	add	x1, x1, #0x571
   83254:	528004c2 	mov	w2, #0x26                  	// #38
   83258:	9116f463 	add	x3, x3, #0x5bd
   8325c:	528015e4 	mov	w4, #0xaf                  	// #175
   83260:	9119b0a5 	add	x5, x5, #0x66c
   83264:	52803466 	mov	w6, #0x1a3                 	// #419
   83268:	97fff966 	bl	81800 <_ZN4core7unicode9printable5check17h12f0cec41989e29fE.llvm.2339018429671269780>
   8326c:	b9401fea 	ldr	w10, [sp, #28]
   83270:	37000520 	tbnz	w0, #0, 83314 <_ZN40_$LT$str$u20$as$u20$core..fmt..Debug$GT$3fmt17h5d87cdd23b341063E+0x2e4>
   83274:	14000033 	b	83340 <_ZN40_$LT$str$u20$as$u20$core..fmt..Debug$GT$3fmt17h5d87cdd23b341063E+0x310>
   83278:	528b2448 	mov	w8, #0x5922                	// #22818
   8327c:	72bfffa8 	movk	w8, #0xfffd, lsl #16
   83280:	0b080148 	add	w8, w10, w8
   83284:	7100891f 	cmp	w8, #0x22
   83288:	540005c3 	b.cc	83340 <_ZN40_$LT$str$u20$as$u20$core..fmt..Debug$GT$3fmt17h5d87cdd23b341063E+0x310>  // b.lo, b.ul, b.last
   8328c:	52891968 	mov	w8, #0x48cb                	// #18635
   83290:	72bfffa8 	movk	w8, #0xfffd, lsl #16
   83294:	0b080148 	add	w8, w10, w8
   83298:	71002d1f 	cmp	w8, #0xb
   8329c:	54000523 	b.cc	83340 <_ZN40_$LT$str$u20$as$u20$core..fmt..Debug$GT$3fmt17h5d87cdd23b341063E+0x310>  // b.lo, b.ul, b.last
   832a0:	529703c9 	mov	w9, #0xb81e                	// #47134
   832a4:	121f4d48 	and	w8, w10, #0x1ffffe
   832a8:	72a00049 	movk	w9, #0x2, lsl #16
   832ac:	6b09011f 	cmp	w8, w9
   832b0:	54000480 	b.eq	83340 <_ZN40_$LT$str$u20$as$u20$core..fmt..Debug$GT$3fmt17h5d87cdd23b341063E+0x310>  // b.none
   832b4:	52862bc8 	mov	w8, #0x315e                	// #12638
   832b8:	72bfffa8 	movk	w8, #0xfffd, lsl #16
   832bc:	0b080148 	add	w8, w10, w8
   832c0:	7100391f 	cmp	w8, #0xe
   832c4:	540003e3 	b.cc	83340 <_ZN40_$LT$str$u20$as$u20$core..fmt..Debug$GT$3fmt17h5d87cdd23b341063E+0x310>  // b.lo, b.ul, b.last
   832c8:	5280bc48 	mov	w8, #0x5e2                 	// #1506
   832cc:	72bfffa8 	movk	w8, #0xfffd, lsl #16
   832d0:	0b080148 	add	w8, w10, w8
   832d4:	1138f509 	add	w9, w8, #0xe3d
   832d8:	71307d3f 	cmp	w9, #0xc1f
   832dc:	54000323 	b.cc	83340 <_ZN40_$LT$str$u20$as$u20$core..fmt..Debug$GT$3fmt17h5d87cdd23b341063E+0x310>  // b.lo, b.ul, b.last
   832e0:	7117891f 	cmp	w8, #0x5e2
   832e4:	540002e3 	b.cc	83340 <_ZN40_$LT$str$u20$as$u20$core..fmt..Debug$GT$3fmt17h5d87cdd23b341063E+0x310>  // b.lo, b.ul, b.last
   832e8:	529d96a8 	mov	w8, #0xecb5                	// #60597
   832ec:	529db6a9 	mov	w9, #0xedb5                	// #60853
   832f0:	72bfff88 	movk	w8, #0xfffc, lsl #16
   832f4:	72a00149 	movk	w9, #0xa, lsl #16
   832f8:	0b080148 	add	w8, w10, w8
   832fc:	6b09011f 	cmp	w8, w9
   83300:	54000203 	b.cc	83340 <_ZN40_$LT$str$u20$as$u20$core..fmt..Debug$GT$3fmt17h5d87cdd23b341063E+0x310>  // b.lo, b.ul, b.last
   83304:	52803e08 	mov	w8, #0x1f0                 	// #496
   83308:	72a001c8 	movk	w8, #0xe, lsl #16
   8330c:	6b08015f 	cmp	w10, w8
   83310:	54000182 	b.cs	83340 <_ZN40_$LT$str$u20$as$u20$core..fmt..Debug$GT$3fmt17h5d87cdd23b341063E+0x310>  // b.hs, b.nlast
   83314:	f94017eb 	ldr	x11, [sp, #40]
   83318:	f000000c 	adrp	x12, 86000 <_ZN4core7unicode12unicode_data15grapheme_extend7OFFSETS17h43cbc87acfaf4d34E.llvm.111400220230659385+0x98>
   8331c:	f9400be9 	ldr	x9, [sp, #16]
   83320:	9127c18c 	add	x12, x12, #0x9f0
   83324:	f94003ea 	ldr	x10, [sp]
   83328:	cb0902a8 	sub	x8, x21, x9
   8332c:	aa0a03e9 	mov	x9, x10
   83330:	8b0a0115 	add	x21, x8, x10
   83334:	eb1a015f 	cmp	x10, x26
   83338:	54ffeca1 	b.ne	830cc <_ZN40_$LT$str$u20$as$u20$core..fmt..Debug$GT$3fmt17h5d87cdd23b341063E+0x9c>  // b.any
   8333c:	14000083 	b	83548 <_ZN40_$LT$str$u20$as$u20$core..fmt..Debug$GT$3fmt17h5d87cdd23b341063E+0x518>
   83340:	32000148 	orr	w8, w10, #0x1
   83344:	2a0a03e9 	mov	w9, w10
   83348:	5ac01108 	clz	w8, w8
   8334c:	f94017eb 	ldr	x11, [sp, #40]
   83350:	53027d08 	lsr	w8, w8, #2
   83354:	5200091b 	eor	w27, w8, #0x7
   83358:	d2c000a8 	mov	x8, #0x500000000           	// #21474836480
   8335c:	f94003ed 	ldr	x13, [sp]
   83360:	aa080139 	orr	x25, x9, x8
   83364:	52800073 	mov	w19, #0x3                   	// #3
   83368:	eb1802bf 	cmp	x21, x24
   8336c:	540013c3 	b.cc	835e4 <_ZN40_$LT$str$u20$as$u20$core..fmt..Debug$GT$3fmt17h5d87cdd23b341063E+0x5b4>  // b.lo, b.ul, b.last
   83370:	b4000138 	cbz	x24, 83394 <_ZN40_$LT$str$u20$as$u20$core..fmt..Debug$GT$3fmt17h5d87cdd23b341063E+0x364>
   83374:	eb0b031f 	cmp	x24, x11
   83378:	540000c2 	b.cs	83390 <_ZN40_$LT$str$u20$as$u20$core..fmt..Debug$GT$3fmt17h5d87cdd23b341063E+0x360>  // b.hs, b.nlast
   8337c:	f9401be8 	ldr	x8, [sp, #48]
   83380:	38f86908 	ldrsb	w8, [x8, x24]
   83384:	3101011f 	cmn	w8, #0x40
   83388:	5400006a 	b.ge	83394 <_ZN40_$LT$str$u20$as$u20$core..fmt..Debug$GT$3fmt17h5d87cdd23b341063E+0x364>  // b.tcont
   8338c:	14000096 	b	835e4 <_ZN40_$LT$str$u20$as$u20$core..fmt..Debug$GT$3fmt17h5d87cdd23b341063E+0x5b4>
   83390:	540012a1 	b.ne	835e4 <_ZN40_$LT$str$u20$as$u20$core..fmt..Debug$GT$3fmt17h5d87cdd23b341063E+0x5b4>  // b.any
   83394:	b4000135 	cbz	x21, 833b8 <_ZN40_$LT$str$u20$as$u20$core..fmt..Debug$GT$3fmt17h5d87cdd23b341063E+0x388>
   83398:	eb0b02bf 	cmp	x21, x11
   8339c:	54000122 	b.cs	833c0 <_ZN40_$LT$str$u20$as$u20$core..fmt..Debug$GT$3fmt17h5d87cdd23b341063E+0x390>  // b.hs, b.nlast
   833a0:	f9401be8 	ldr	x8, [sp, #48]
   833a4:	aa1503fa 	mov	x26, x21
   833a8:	38f56908 	ldrsb	w8, [x8, x21]
   833ac:	3101051f 	cmn	w8, #0x41
   833b0:	540000cc 	b.gt	833c8 <_ZN40_$LT$str$u20$as$u20$core..fmt..Debug$GT$3fmt17h5d87cdd23b341063E+0x398>
   833b4:	1400008c 	b	835e4 <_ZN40_$LT$str$u20$as$u20$core..fmt..Debug$GT$3fmt17h5d87cdd23b341063E+0x5b4>
   833b8:	aa1f03fa 	mov	x26, xzr
   833bc:	14000003 	b	833c8 <_ZN40_$LT$str$u20$as$u20$core..fmt..Debug$GT$3fmt17h5d87cdd23b341063E+0x398>
   833c0:	aa0b03fa 	mov	x26, x11
   833c4:	54001101 	b.ne	835e4 <_ZN40_$LT$str$u20$as$u20$core..fmt..Debug$GT$3fmt17h5d87cdd23b341063E+0x5b4>  // b.any
   833c8:	f94013e8 	ldr	x8, [sp, #32]
   833cc:	cb180342 	sub	x2, x26, x24
   833d0:	f9401be9 	ldr	x9, [sp, #48]
   833d4:	aa1403e0 	mov	x0, x20
   833d8:	aa0d03f6 	mov	x22, x13
   833dc:	f9400d08 	ldr	x8, [x8, #24]
   833e0:	8b180121 	add	x1, x9, x24
   833e4:	d63f0100 	blr	x8
   833e8:	f0000018 	adrp	x24, 86000 <_ZN4core7unicode12unicode_data15grapheme_extend7OFFSETS17h43cbc87acfaf4d34E.llvm.111400220230659385+0x98>
   833ec:	91283b18 	add	x24, x24, #0xa0e
   833f0:	36000100 	tbz	w0, #0, 83410 <_ZN40_$LT$str$u20$as$u20$core..fmt..Debug$GT$3fmt17h5d87cdd23b341063E+0x3e0>
   833f4:	17ffff1e 	b	8306c <_ZN40_$LT$str$u20$as$u20$core..fmt..Debug$GT$3fmt17h5d87cdd23b341063E+0x3c>
   833f8:	2a1f03f3 	mov	w19, wzr
   833fc:	2a1703e1 	mov	w1, w23
   83400:	f9401fe2 	ldr	x2, [sp, #56]
   83404:	aa1403e0 	mov	x0, x20
   83408:	d63f0040 	blr	x2
   8340c:	3707e300 	tbnz	w0, #0, 8306c <_ZN40_$LT$str$u20$as$u20$core..fmt..Debug$GT$3fmt17h5d87cdd23b341063E+0x3c>
   83410:	2a1303e8 	mov	w8, w19
   83414:	52800033 	mov	w19, #0x1                   	// #1
   83418:	2a0803e8 	mov	w8, w8
   8341c:	2a1d03e1 	mov	w1, w29
   83420:	10fffec9 	adr	x9, 833f8 <_ZN40_$LT$str$u20$as$u20$core..fmt..Debug$GT$3fmt17h5d87cdd23b341063E+0x3c8>
   83424:	38686b8a 	ldrb	w10, [x28, x8]
   83428:	8b0a0929 	add	x9, x9, x10, lsl #2
   8342c:	d61f0120 	br	x9
   83430:	d3609f28 	ubfx	x8, x25, #32, #8
   83434:	10000089 	adr	x9, 83444 <_ZN40_$LT$str$u20$as$u20$core..fmt..Debug$GT$3fmt17h5d87cdd23b341063E+0x414>
   83438:	38686b0a 	ldrb	w10, [x24, x8]
   8343c:	8b0a0929 	add	x9, x9, x10, lsl #2
   83440:	d61f0120 	br	x9
   83444:	9258df39 	and	x25, x25, #0xffffff00ffffffff
   83448:	52800073 	mov	w19, #0x3                   	// #3
   8344c:	52800fa1 	mov	w1, #0x7d                  	// #125
   83450:	17ffffec 	b	83400 <_ZN40_$LT$str$u20$as$u20$core..fmt..Debug$GT$3fmt17h5d87cdd23b341063E+0x3d0>
   83454:	9258df28 	and	x8, x25, #0xffffff00ffffffff
   83458:	52800073 	mov	w19, #0x3                   	// #3
   8345c:	b2600519 	orr	x25, x8, #0x300000000
   83460:	52800ea1 	mov	w1, #0x75                  	// #117
   83464:	17ffffe7 	b	83400 <_ZN40_$LT$str$u20$as$u20$core..fmt..Debug$GT$3fmt17h5d87cdd23b341063E+0x3d0>
   83468:	531e0b68 	ubfiz	w8, w27, #2, #3
   8346c:	52800ae9 	mov	w9, #0x57                  	// #87
   83470:	5280060a 	mov	w10, #0x30                  	// #48
   83474:	1ac82728 	lsr	w8, w25, w8
   83478:	12000d08 	and	w8, w8, #0xf
   8347c:	7100291f 	cmp	w8, #0xa
   83480:	1a893149 	csel	w9, w10, w9, cc  // cc = lo, ul, last
   83484:	0b080121 	add	w1, w9, w8
   83488:	b40001db 	cbz	x27, 834c0 <_ZN40_$LT$str$u20$as$u20$core..fmt..Debug$GT$3fmt17h5d87cdd23b341063E+0x490>
   8348c:	d100077b 	sub	x27, x27, #0x1
   83490:	52800073 	mov	w19, #0x3                   	// #3
   83494:	17ffffdb 	b	83400 <_ZN40_$LT$str$u20$as$u20$core..fmt..Debug$GT$3fmt17h5d87cdd23b341063E+0x3d0>
   83498:	9258df28 	and	x8, x25, #0xffffff00ffffffff
   8349c:	52800073 	mov	w19, #0x3                   	// #3
   834a0:	b25f0119 	orr	x25, x8, #0x200000000
   834a4:	52800f61 	mov	w1, #0x7b                  	// #123
   834a8:	17ffffd6 	b	83400 <_ZN40_$LT$str$u20$as$u20$core..fmt..Debug$GT$3fmt17h5d87cdd23b341063E+0x3d0>
   834ac:	9258df28 	and	x8, x25, #0xffffff00ffffffff
   834b0:	52800073 	mov	w19, #0x3                   	// #3
   834b4:	b25e0119 	orr	x25, x8, #0x400000000
   834b8:	2a1d03e1 	mov	w1, w29
   834bc:	17ffffd1 	b	83400 <_ZN40_$LT$str$u20$as$u20$core..fmt..Debug$GT$3fmt17h5d87cdd23b341063E+0x3d0>
   834c0:	9258df28 	and	x8, x25, #0xffffff00ffffffff
   834c4:	52800073 	mov	w19, #0x3                   	// #3
   834c8:	b2600119 	orr	x25, x8, #0x100000000
   834cc:	17ffffcd 	b	83400 <_ZN40_$LT$str$u20$as$u20$core..fmt..Debug$GT$3fmt17h5d87cdd23b341063E+0x3d0>
   834d0:	b9401fe8 	ldr	w8, [sp, #28]
   834d4:	7102011f 	cmp	w8, #0x80
   834d8:	54000102 	b.cs	834f8 <_ZN40_$LT$str$u20$as$u20$core..fmt..Debug$GT$3fmt17h5d87cdd23b341063E+0x4c8>  // b.hs, b.nlast
   834dc:	f94017eb 	ldr	x11, [sp, #40]
   834e0:	f000000c 	adrp	x12, 86000 <_ZN4core7unicode12unicode_data15grapheme_extend7OFFSETS17h43cbc87acfaf4d34E.llvm.111400220230659385+0x98>
   834e4:	f9400be9 	ldr	x9, [sp, #16]
   834e8:	52800028 	mov	w8, #0x1                   	// #1
   834ec:	9127c18c 	add	x12, x12, #0x9f0
   834f0:	aa1603ea 	mov	x10, x22
   834f4:	1400000d 	b	83528 <_ZN40_$LT$str$u20$as$u20$core..fmt..Debug$GT$3fmt17h5d87cdd23b341063E+0x4f8>
   834f8:	f94017eb 	ldr	x11, [sp, #40]
   834fc:	f000000c 	adrp	x12, 86000 <_ZN4core7unicode12unicode_data15grapheme_extend7OFFSETS17h43cbc87acfaf4d34E.llvm.111400220230659385+0x98>
   83500:	f9400be9 	ldr	x9, [sp, #16]
   83504:	9127c18c 	add	x12, x12, #0x9f0
   83508:	aa1603ea 	mov	x10, x22
   8350c:	7120011f 	cmp	w8, #0x800
   83510:	54000062 	b.cs	8351c <_ZN40_$LT$str$u20$as$u20$core..fmt..Debug$GT$3fmt17h5d87cdd23b341063E+0x4ec>  // b.hs, b.nlast
   83514:	52800048 	mov	w8, #0x2                   	// #2
   83518:	14000004 	b	83528 <_ZN40_$LT$str$u20$as$u20$core..fmt..Debug$GT$3fmt17h5d87cdd23b341063E+0x4f8>
   8351c:	7140411f 	cmp	w8, #0x10, lsl #12
   83520:	52800068 	mov	w8, #0x3                   	// #3
   83524:	9a883508 	cinc	x8, x8, cs  // cs = hs, nlast
   83528:	8b1a0118 	add	x24, x8, x26
   8352c:	f94007fa 	ldr	x26, [sp, #8]
   83530:	52800e96 	mov	w22, #0x74                  	// #116
   83534:	cb0902a8 	sub	x8, x21, x9
   83538:	aa0a03e9 	mov	x9, x10
   8353c:	8b0a0115 	add	x21, x8, x10
   83540:	eb1a015f 	cmp	x10, x26
   83544:	54ffdc41 	b.ne	830cc <_ZN40_$LT$str$u20$as$u20$core..fmt..Debug$GT$3fmt17h5d87cdd23b341063E+0x9c>  // b.any
   83548:	b4000138 	cbz	x24, 8356c <_ZN40_$LT$str$u20$as$u20$core..fmt..Debug$GT$3fmt17h5d87cdd23b341063E+0x53c>
   8354c:	eb0b031f 	cmp	x24, x11
   83550:	54000362 	b.cs	835bc <_ZN40_$LT$str$u20$as$u20$core..fmt..Debug$GT$3fmt17h5d87cdd23b341063E+0x58c>  // b.hs, b.nlast
   83554:	f9401be8 	ldr	x8, [sp, #48]
   83558:	38f86908 	ldrsb	w8, [x8, x24]
   8355c:	3101051f 	cmn	w8, #0x41
   83560:	5400032d 	b.le	835c4 <_ZN40_$LT$str$u20$as$u20$core..fmt..Debug$GT$3fmt17h5d87cdd23b341063E+0x594>
   83564:	aa1803e8 	mov	x8, x24
   83568:	14000002 	b	83570 <_ZN40_$LT$str$u20$as$u20$core..fmt..Debug$GT$3fmt17h5d87cdd23b341063E+0x540>
   8356c:	aa1f03e8 	mov	x8, xzr
   83570:	f94013e9 	ldr	x9, [sp, #32]
   83574:	cb080162 	sub	x2, x11, x8
   83578:	f9401bea 	ldr	x10, [sp, #48]
   8357c:	aa1403e0 	mov	x0, x20
   83580:	f9400d29 	ldr	x9, [x9, #24]
   83584:	8b080141 	add	x1, x10, x8
   83588:	d63f0120 	blr	x9
   8358c:	3707d700 	tbnz	w0, #0, 8306c <_ZN40_$LT$str$u20$as$u20$core..fmt..Debug$GT$3fmt17h5d87cdd23b341063E+0x3c>
   83590:	aa1403e0 	mov	x0, x20
   83594:	f9401fe2 	ldr	x2, [sp, #56]
   83598:	a9494ff4 	ldp	x20, x19, [sp, #144]
   8359c:	52800441 	mov	w1, #0x22                  	// #34
   835a0:	a94857f6 	ldp	x22, x21, [sp, #128]
   835a4:	a9475ff8 	ldp	x24, x23, [sp, #112]
   835a8:	a94667fa 	ldp	x26, x25, [sp, #96]
   835ac:	a9456ffc 	ldp	x28, x27, [sp, #80]
   835b0:	a9447bfd 	ldp	x29, x30, [sp, #64]
   835b4:	910283ff 	add	sp, sp, #0xa0
   835b8:	d61f0040 	br	x2
   835bc:	aa0b03e8 	mov	x8, x11
   835c0:	54fffd80 	b.eq	83570 <_ZN40_$LT$str$u20$as$u20$core..fmt..Debug$GT$3fmt17h5d87cdd23b341063E+0x540>  // b.none
   835c4:	b0000024 	adrp	x4, 88000 <anon.b2eb45f66a0b759930b184b68fba7a80.61.llvm.111400220230659385+0x178>
   835c8:	f9401be0 	ldr	x0, [sp, #48]
   835cc:	91050084 	add	x4, x4, #0x140
   835d0:	aa0b03e1 	mov	x1, x11
   835d4:	aa1803e2 	mov	x2, x24
   835d8:	aa0b03e3 	mov	x3, x11
   835dc:	97fff9b5 	bl	81cb0 <_ZN4core3str16slice_error_fail17h932895516ec20f79E>
   835e0:	d4200020 	brk	#0x1
   835e4:	b0000024 	adrp	x4, 88000 <anon.b2eb45f66a0b759930b184b68fba7a80.61.llvm.111400220230659385+0x178>
   835e8:	f9401be0 	ldr	x0, [sp, #48]
   835ec:	9104a084 	add	x4, x4, #0x128
   835f0:	aa0b03e1 	mov	x1, x11
   835f4:	aa1803e2 	mov	x2, x24
   835f8:	aa1503e3 	mov	x3, x21
   835fc:	97fff9ad 	bl	81cb0 <_ZN4core3str16slice_error_fail17h932895516ec20f79E>
   83600:	d4200020 	brk	#0x1
	...

0000000000083610 <_ZN41_$LT$char$u20$as$u20$core..fmt..Debug$GT$3fmt17h14840f67fe57787fE>:
   83610:	d101c3ff 	sub	sp, sp, #0x70
   83614:	a9064ff4 	stp	x20, x19, [sp, #96]
   83618:	aa0003f4 	mov	x20, x0
   8361c:	a9422033 	ldp	x19, x8, [x1, #32]
   83620:	528004e1 	mov	w1, #0x27                  	// #39
   83624:	a9017bfd 	stp	x29, x30, [sp, #16]
   83628:	a9026ffc 	stp	x28, x27, [sp, #32]
   8362c:	f9401102 	ldr	x2, [x8, #32]
   83630:	aa1303e0 	mov	x0, x19
   83634:	a90367fa 	stp	x26, x25, [sp, #48]
   83638:	a9045ff8 	stp	x24, x23, [sp, #64]
   8363c:	a90557f6 	stp	x22, x21, [sp, #80]
   83640:	f90007e2 	str	x2, [sp, #8]
   83644:	d63f0040 	blr	x2
   83648:	36000140 	tbz	w0, #0, 83670 <_ZN41_$LT$char$u20$as$u20$core..fmt..Debug$GT$3fmt17h14840f67fe57787fE+0x60>
   8364c:	a9464ff4 	ldp	x20, x19, [sp, #96]
   83650:	52800020 	mov	w0, #0x1                   	// #1
   83654:	a94557f6 	ldp	x22, x21, [sp, #80]
   83658:	a9445ff8 	ldp	x24, x23, [sp, #64]
   8365c:	a94367fa 	ldp	x26, x25, [sp, #48]
   83660:	a9426ffc 	ldp	x28, x27, [sp, #32]
   83664:	a9417bfd 	ldp	x29, x30, [sp, #16]
   83668:	9101c3ff 	add	sp, sp, #0x70
   8366c:	d65f03c0 	ret
   83670:	b9400294 	ldr	w20, [x20]
   83674:	51002688 	sub	w8, w20, #0x9
   83678:	7100791f 	cmp	w8, #0x1e
   8367c:	54000188 	b.hi	836ac <_ZN41_$LT$char$u20$as$u20$core..fmt..Debug$GT$3fmt17h14840f67fe57787fE+0x9c>  // b.pmore
   83680:	f0000009 	adrp	x9, 86000 <_ZN4core7unicode12unicode_data15grapheme_extend7OFFSETS17h43cbc87acfaf4d34E.llvm.111400220230659385+0x98>
   83684:	52800e95 	mov	w21, #0x74                  	// #116
   83688:	91285129 	add	x9, x9, #0xa14
   8368c:	52800057 	mov	w23, #0x2                   	// #2
   83690:	1000008a 	adr	x10, 836a0 <_ZN41_$LT$char$u20$as$u20$core..fmt..Debug$GT$3fmt17h14840f67fe57787fE+0x90>
   83694:	3868692b 	ldrb	w11, [x9, x8]
   83698:	8b0b094a 	add	x10, x10, x11, lsl #2
   8369c:	d61f0140 	br	x10
   836a0:	52800dd5 	mov	w21, #0x6e                  	// #110
   836a4:	52800057 	mov	w23, #0x2                   	// #2
   836a8:	1400005c 	b	83818 <_ZN41_$LT$char$u20$as$u20$core..fmt..Debug$GT$3fmt17h14840f67fe57787fE+0x208>
   836ac:	7101729f 	cmp	w20, #0x5c
   836b0:	54000081 	b.ne	836c0 <_ZN41_$LT$char$u20$as$u20$core..fmt..Debug$GT$3fmt17h14840f67fe57787fE+0xb0>  // b.any
   836b4:	52800057 	mov	w23, #0x2                   	// #2
   836b8:	2a1403f5 	mov	w21, w20
   836bc:	14000057 	b	83818 <_ZN41_$LT$char$u20$as$u20$core..fmt..Debug$GT$3fmt17h14840f67fe57787fE+0x208>
   836c0:	2a1403e0 	mov	w0, w20
   836c4:	97fff6af 	bl	81180 <_ZN4core7unicode12unicode_data15grapheme_extend6lookup17h4c3fb151a65b2097E>
   836c8:	37000980 	tbnz	w0, #0, 837f8 <_ZN41_$LT$char$u20$as$u20$core..fmt..Debug$GT$3fmt17h14840f67fe57787fE+0x1e8>
   836cc:	7140429f 	cmp	w20, #0x10, lsl #12
   836d0:	54000222 	b.cs	83714 <_ZN41_$LT$char$u20$as$u20$core..fmt..Debug$GT$3fmt17h14840f67fe57787fE+0x104>  // b.hs, b.nlast
   836d4:	f0000001 	adrp	x1, 86000 <_ZN4core7unicode12unicode_data15grapheme_extend7OFFSETS17h43cbc87acfaf4d34E.llvm.111400220230659385+0x98>
   836d8:	f0000003 	adrp	x3, 86000 <_ZN4core7unicode12unicode_data15grapheme_extend7OFFSETS17h43cbc87acfaf4d34E.llvm.111400220230659385+0x98>
   836dc:	f0000005 	adrp	x5, 86000 <_ZN4core7unicode12unicode_data15grapheme_extend7OFFSETS17h43cbc87acfaf4d34E.llvm.111400220230659385+0x98>
   836e0:	910b2021 	add	x1, x1, #0x2c8
   836e4:	910c6863 	add	x3, x3, #0x31a
   836e8:	9110f0a5 	add	x5, x5, #0x43c
   836ec:	52800522 	mov	w2, #0x29                  	// #41
   836f0:	52802444 	mov	w4, #0x122                 	// #290
   836f4:	528026a6 	mov	w6, #0x135                 	// #309
   836f8:	2a1403e0 	mov	w0, w20
   836fc:	97fff841 	bl	81800 <_ZN4core7unicode9printable5check17h12f0cec41989e29fE.llvm.2339018429671269780>
   83700:	37000760 	tbnz	w0, #0, 837ec <_ZN41_$LT$char$u20$as$u20$core..fmt..Debug$GT$3fmt17h14840f67fe57787fE+0x1dc>
   83704:	1400003d 	b	837f8 <_ZN41_$LT$char$u20$as$u20$core..fmt..Debug$GT$3fmt17h14840f67fe57787fE+0x1e8>
   83708:	52800e55 	mov	w21, #0x72                  	// #114
   8370c:	52800057 	mov	w23, #0x2                   	// #2
   83710:	14000042 	b	83818 <_ZN41_$LT$char$u20$as$u20$core..fmt..Debug$GT$3fmt17h14840f67fe57787fE+0x208>
   83714:	7140829f 	cmp	w20, #0x20, lsl #12
   83718:	540001c2 	b.cs	83750 <_ZN41_$LT$char$u20$as$u20$core..fmt..Debug$GT$3fmt17h14840f67fe57787fE+0x140>  // b.hs, b.nlast
   8371c:	f0000001 	adrp	x1, 86000 <_ZN4core7unicode12unicode_data15grapheme_extend7OFFSETS17h43cbc87acfaf4d34E.llvm.111400220230659385+0x98>
   83720:	f0000003 	adrp	x3, 86000 <_ZN4core7unicode12unicode_data15grapheme_extend7OFFSETS17h43cbc87acfaf4d34E.llvm.111400220230659385+0x98>
   83724:	f0000005 	adrp	x5, 86000 <_ZN4core7unicode12unicode_data15grapheme_extend7OFFSETS17h43cbc87acfaf4d34E.llvm.111400220230659385+0x98>
   83728:	9115c421 	add	x1, x1, #0x571
   8372c:	9116f463 	add	x3, x3, #0x5bd
   83730:	9119b0a5 	add	x5, x5, #0x66c
   83734:	528004c2 	mov	w2, #0x26                  	// #38
   83738:	528015e4 	mov	w4, #0xaf                  	// #175
   8373c:	52803466 	mov	w6, #0x1a3                 	// #419
   83740:	2a1403e0 	mov	w0, w20
   83744:	97fff82f 	bl	81800 <_ZN4core7unicode9printable5check17h12f0cec41989e29fE.llvm.2339018429671269780>
   83748:	37000520 	tbnz	w0, #0, 837ec <_ZN41_$LT$char$u20$as$u20$core..fmt..Debug$GT$3fmt17h14840f67fe57787fE+0x1dc>
   8374c:	1400002b 	b	837f8 <_ZN41_$LT$char$u20$as$u20$core..fmt..Debug$GT$3fmt17h14840f67fe57787fE+0x1e8>
   83750:	528b2448 	mov	w8, #0x5922                	// #22818
   83754:	72bfffa8 	movk	w8, #0xfffd, lsl #16
   83758:	0b080288 	add	w8, w20, w8
   8375c:	7100891f 	cmp	w8, #0x22
   83760:	540004c3 	b.cc	837f8 <_ZN41_$LT$char$u20$as$u20$core..fmt..Debug$GT$3fmt17h14840f67fe57787fE+0x1e8>  // b.lo, b.ul, b.last
   83764:	52891968 	mov	w8, #0x48cb                	// #18635
   83768:	72bfffa8 	movk	w8, #0xfffd, lsl #16
   8376c:	0b080288 	add	w8, w20, w8
   83770:	71002d1f 	cmp	w8, #0xb
   83774:	54000423 	b.cc	837f8 <_ZN41_$LT$char$u20$as$u20$core..fmt..Debug$GT$3fmt17h14840f67fe57787fE+0x1e8>  // b.lo, b.ul, b.last
   83778:	529703c9 	mov	w9, #0xb81e                	// #47134
   8377c:	121f4e88 	and	w8, w20, #0x1ffffe
   83780:	72a00049 	movk	w9, #0x2, lsl #16
   83784:	6b09011f 	cmp	w8, w9
   83788:	54000380 	b.eq	837f8 <_ZN41_$LT$char$u20$as$u20$core..fmt..Debug$GT$3fmt17h14840f67fe57787fE+0x1e8>  // b.none
   8378c:	52862bc8 	mov	w8, #0x315e                	// #12638
   83790:	72bfffa8 	movk	w8, #0xfffd, lsl #16
   83794:	0b080288 	add	w8, w20, w8
   83798:	7100391f 	cmp	w8, #0xe
   8379c:	540002e3 	b.cc	837f8 <_ZN41_$LT$char$u20$as$u20$core..fmt..Debug$GT$3fmt17h14840f67fe57787fE+0x1e8>  // b.lo, b.ul, b.last
   837a0:	5280bc48 	mov	w8, #0x5e2                 	// #1506
   837a4:	72bfffa8 	movk	w8, #0xfffd, lsl #16
   837a8:	0b080288 	add	w8, w20, w8
   837ac:	1138f509 	add	w9, w8, #0xe3d
   837b0:	71307d3f 	cmp	w9, #0xc1f
   837b4:	54000223 	b.cc	837f8 <_ZN41_$LT$char$u20$as$u20$core..fmt..Debug$GT$3fmt17h14840f67fe57787fE+0x1e8>  // b.lo, b.ul, b.last
   837b8:	7117891f 	cmp	w8, #0x5e2
   837bc:	540001e3 	b.cc	837f8 <_ZN41_$LT$char$u20$as$u20$core..fmt..Debug$GT$3fmt17h14840f67fe57787fE+0x1e8>  // b.lo, b.ul, b.last
   837c0:	529d96a8 	mov	w8, #0xecb5                	// #60597
   837c4:	529db6a9 	mov	w9, #0xedb5                	// #60853
   837c8:	72bfff88 	movk	w8, #0xfffc, lsl #16
   837cc:	72a00149 	movk	w9, #0xa, lsl #16
   837d0:	0b080288 	add	w8, w20, w8
   837d4:	6b09011f 	cmp	w8, w9
   837d8:	54000103 	b.cc	837f8 <_ZN41_$LT$char$u20$as$u20$core..fmt..Debug$GT$3fmt17h14840f67fe57787fE+0x1e8>  // b.lo, b.ul, b.last
   837dc:	52803e08 	mov	w8, #0x1f0                 	// #496
   837e0:	72a001c8 	movk	w8, #0xe, lsl #16
   837e4:	6b08029f 	cmp	w20, w8
   837e8:	54000082 	b.cs	837f8 <_ZN41_$LT$char$u20$as$u20$core..fmt..Debug$GT$3fmt17h14840f67fe57787fE+0x1e8>  // b.hs, b.nlast
   837ec:	52800037 	mov	w23, #0x1                   	// #1
   837f0:	2a1403f5 	mov	w21, w20
   837f4:	14000009 	b	83818 <_ZN41_$LT$char$u20$as$u20$core..fmt..Debug$GT$3fmt17h14840f67fe57787fE+0x208>
   837f8:	32000288 	orr	w8, w20, #0x1
   837fc:	2a1403e9 	mov	w9, w20
   83800:	d2c000aa 	mov	x10, #0x500000000           	// #21474836480
   83804:	5ac01108 	clz	w8, w8
   83808:	53027d08 	lsr	w8, w8, #2
   8380c:	52000916 	eor	w22, w8, #0x7
   83810:	aa0a0138 	orr	x24, x9, x10
   83814:	52800077 	mov	w23, #0x3                   	// #3
   83818:	f000001a 	adrp	x26, 86000 <_ZN4core7unicode12unicode_data15grapheme_extend7OFFSETS17h43cbc87acfaf4d34E.llvm.111400220230659385+0x98>
   8381c:	f0000019 	adrp	x25, 86000 <_ZN4core7unicode12unicode_data15grapheme_extend7OFFSETS17h43cbc87acfaf4d34E.llvm.111400220230659385+0x98>
   83820:	52800b94 	mov	w20, #0x5c                  	// #92
   83824:	5280061b 	mov	w27, #0x30                  	// #48
   83828:	52800f7c 	mov	w28, #0x7b                  	// #123
   8382c:	52800ebd 	mov	w29, #0x75                  	// #117
   83830:	9128cf5a 	add	x26, x26, #0xa33
   83834:	9128df39 	add	x25, x25, #0xa37
   83838:	14000007 	b	83854 <_ZN41_$LT$char$u20$as$u20$core..fmt..Debug$GT$3fmt17h14840f67fe57787fE+0x244>
   8383c:	2a1f03f7 	mov	w23, wzr
   83840:	2a1503e1 	mov	w1, w21
   83844:	f94007e2 	ldr	x2, [sp, #8]
   83848:	aa1303e0 	mov	x0, x19
   8384c:	d63f0040 	blr	x2
   83850:	3707efe0 	tbnz	w0, #0, 8364c <_ZN41_$LT$char$u20$as$u20$core..fmt..Debug$GT$3fmt17h14840f67fe57787fE+0x3c>
   83854:	2a1703e8 	mov	w8, w23
   83858:	52800037 	mov	w23, #0x1                   	// #1
   8385c:	2a0803e8 	mov	w8, w8
   83860:	2a1403e1 	mov	w1, w20
   83864:	10fffec9 	adr	x9, 8383c <_ZN41_$LT$char$u20$as$u20$core..fmt..Debug$GT$3fmt17h14840f67fe57787fE+0x22c>
   83868:	38686b4a 	ldrb	w10, [x26, x8]
   8386c:	8b0a0929 	add	x9, x9, x10, lsl #2
   83870:	d61f0120 	br	x9
   83874:	d3609f08 	ubfx	x8, x24, #32, #8
   83878:	10000089 	adr	x9, 83888 <_ZN41_$LT$char$u20$as$u20$core..fmt..Debug$GT$3fmt17h14840f67fe57787fE+0x278>
   8387c:	38686b2a 	ldrb	w10, [x25, x8]
   83880:	8b0a0929 	add	x9, x9, x10, lsl #2
   83884:	d61f0120 	br	x9
   83888:	9258df18 	and	x24, x24, #0xffffff00ffffffff
   8388c:	52800077 	mov	w23, #0x3                   	// #3
   83890:	52800fa1 	mov	w1, #0x7d                  	// #125
   83894:	17ffffec 	b	83844 <_ZN41_$LT$char$u20$as$u20$core..fmt..Debug$GT$3fmt17h14840f67fe57787fE+0x234>
   83898:	531e0ac8 	ubfiz	w8, w22, #2, #3
   8389c:	52800ae9 	mov	w9, #0x57                  	// #87
   838a0:	1ac82708 	lsr	w8, w24, w8
   838a4:	12000d08 	and	w8, w8, #0xf
   838a8:	7100291f 	cmp	w8, #0xa
   838ac:	1a893369 	csel	w9, w27, w9, cc  // cc = lo, ul, last
   838b0:	0b080121 	add	w1, w9, w8
   838b4:	b4000276 	cbz	x22, 83900 <_ZN41_$LT$char$u20$as$u20$core..fmt..Debug$GT$3fmt17h14840f67fe57787fE+0x2f0>
   838b8:	d10006d6 	sub	x22, x22, #0x1
   838bc:	52800077 	mov	w23, #0x3                   	// #3
   838c0:	17ffffe1 	b	83844 <_ZN41_$LT$char$u20$as$u20$core..fmt..Debug$GT$3fmt17h14840f67fe57787fE+0x234>
   838c4:	9258df08 	and	x8, x24, #0xffffff00ffffffff
   838c8:	52800077 	mov	w23, #0x3                   	// #3
   838cc:	b25f0118 	orr	x24, x8, #0x200000000
   838d0:	2a1c03e1 	mov	w1, w28
   838d4:	17ffffdc 	b	83844 <_ZN41_$LT$char$u20$as$u20$core..fmt..Debug$GT$3fmt17h14840f67fe57787fE+0x234>
   838d8:	9258df08 	and	x8, x24, #0xffffff00ffffffff
   838dc:	52800077 	mov	w23, #0x3                   	// #3
   838e0:	b2600518 	orr	x24, x8, #0x300000000
   838e4:	2a1d03e1 	mov	w1, w29
   838e8:	17ffffd7 	b	83844 <_ZN41_$LT$char$u20$as$u20$core..fmt..Debug$GT$3fmt17h14840f67fe57787fE+0x234>
   838ec:	9258df08 	and	x8, x24, #0xffffff00ffffffff
   838f0:	52800077 	mov	w23, #0x3                   	// #3
   838f4:	b25e0118 	orr	x24, x8, #0x400000000
   838f8:	2a1403e1 	mov	w1, w20
   838fc:	17ffffd2 	b	83844 <_ZN41_$LT$char$u20$as$u20$core..fmt..Debug$GT$3fmt17h14840f67fe57787fE+0x234>
   83900:	9258df08 	and	x8, x24, #0xffffff00ffffffff
   83904:	52800077 	mov	w23, #0x3                   	// #3
   83908:	b2600118 	orr	x24, x8, #0x100000000
   8390c:	17ffffce 	b	83844 <_ZN41_$LT$char$u20$as$u20$core..fmt..Debug$GT$3fmt17h14840f67fe57787fE+0x234>
   83910:	aa1303e0 	mov	x0, x19
   83914:	f94007e2 	ldr	x2, [sp, #8]
   83918:	a9464ff4 	ldp	x20, x19, [sp, #96]
   8391c:	528004e1 	mov	w1, #0x27                  	// #39
   83920:	a94557f6 	ldp	x22, x21, [sp, #80]
   83924:	a9445ff8 	ldp	x24, x23, [sp, #64]
   83928:	a94367fa 	ldp	x26, x25, [sp, #48]
   8392c:	a9426ffc 	ldp	x28, x27, [sp, #32]
   83930:	a9417bfd 	ldp	x29, x30, [sp, #16]
   83934:	9101c3ff 	add	sp, sp, #0x70
   83938:	d61f0040 	br	x2
   8393c:	00000000 	.inst	0x00000000 ; undefined

0000000000083940 <_ZN42_$LT$$RF$T$u20$as$u20$core..fmt..Debug$GT$3fmt17h0a9ad9a917523fd9E>:
   83940:	a9402000 	ldp	x0, x8, [x0]
   83944:	f9400d02 	ldr	x2, [x8, #24]
   83948:	d61f0040 	br	x2
   8394c:	00000000 	.inst	0x00000000 ; undefined

0000000000083950 <_ZN44_$LT$$RF$T$u20$as$u20$core..fmt..Display$GT$3fmt17h3d5dfc3806ecfe22E>:
   83950:	aa0103e8 	mov	x8, x1
   83954:	a9400801 	ldp	x1, x2, [x0]
   83958:	aa0803e0 	mov	x0, x8
   8395c:	17fffca1 	b	82be0 <_ZN4core3fmt9Formatter3pad17h878fee43bbd7a693E>

0000000000083960 <__hang>:
   83960:	d503205f 	wfe
   83964:	17ffffff 	b	83960 <__hang>
	...

0000000000084000 <__exception_trampoline>:
   84000:	d102c3ff 	sub	sp, sp, #0xb0
   84004:	a90007e0 	stp	x0, x1, [sp]
   84008:	a9010fe2 	stp	x2, x3, [sp, #16]
   8400c:	a90217e4 	stp	x4, x5, [sp, #32]
   84010:	a9031fe6 	stp	x6, x7, [sp, #48]
   84014:	a90427e8 	stp	x8, x9, [sp, #64]
   84018:	a9052fea 	stp	x10, x11, [sp, #80]
   8401c:	a90637ec 	stp	x12, x13, [sp, #96]
   84020:	a9073fee 	stp	x14, x15, [sp, #112]
   84024:	a90847f0 	stp	x16, x17, [sp, #128]
   84028:	a9097bf2 	stp	x18, x30, [sp, #144]
   8402c:	d538400a 	mrs	x10, spsr_el1
   84030:	d538402b 	mrs	x11, elr_el1
   84034:	a90a2fea 	stp	x10, x11, [sp, #160]
   84038:	d5385201 	mrs	x1, esr_el1
   8403c:	d5384002 	mrs	x2, spsr_el1
   84040:	d5386003 	mrs	x3, far_el1
   84044:	d5384024 	mrs	x4, elr_el1
   84048:	940003ee 	bl	85000 <__exception_handler_default>
   8404c:	a94a2fea 	ldp	x10, x11, [sp, #160]
   84050:	d518402b 	msr	elr_el1, x11
   84054:	d518400a 	msr	spsr_el1, x10
   84058:	a94007e0 	ldp	x0, x1, [sp]
   8405c:	a9410fe2 	ldp	x2, x3, [sp, #16]
   84060:	a94217e4 	ldp	x4, x5, [sp, #32]
   84064:	a9431fe6 	ldp	x6, x7, [sp, #48]
   84068:	a94427e8 	ldp	x8, x9, [sp, #64]
   8406c:	a9452fea 	ldp	x10, x11, [sp, #80]
   84070:	a94637ec 	ldp	x12, x13, [sp, #96]
   84074:	a9473fee 	ldp	x14, x15, [sp, #112]
   84078:	a94847f0 	ldp	x16, x17, [sp, #128]
   8407c:	a9497bf2 	ldp	x18, x30, [sp, #144]
   84080:	9102c3ff 	add	sp, sp, #0xb0
   84084:	d65f03c0 	ret
   84088:	d503201f 	nop
   8408c:	d503201f 	nop
   84090:	d503201f 	nop
   84094:	d503201f 	nop
   84098:	d503201f 	nop
   8409c:	d503201f 	nop
   840a0:	d503201f 	nop
   840a4:	d503201f 	nop
   840a8:	d503201f 	nop
   840ac:	d503201f 	nop
   840b0:	d503201f 	nop
   840b4:	d503201f 	nop
   840b8:	d503201f 	nop
   840bc:	d503201f 	nop
   840c0:	d503201f 	nop
   840c4:	d503201f 	nop
   840c8:	d503201f 	nop
   840cc:	d503201f 	nop
   840d0:	d503201f 	nop
   840d4:	d503201f 	nop
   840d8:	d503201f 	nop
   840dc:	d503201f 	nop
   840e0:	d503201f 	nop
   840e4:	d503201f 	nop
   840e8:	d503201f 	nop
   840ec:	d503201f 	nop
   840f0:	d503201f 	nop
   840f4:	d503201f 	nop
   840f8:	d503201f 	nop
   840fc:	d503201f 	nop
   84100:	d503201f 	nop
   84104:	d503201f 	nop
   84108:	d503201f 	nop
   8410c:	d503201f 	nop
   84110:	d503201f 	nop
   84114:	d503201f 	nop
   84118:	d503201f 	nop
   8411c:	d503201f 	nop
   84120:	d503201f 	nop
   84124:	d503201f 	nop
   84128:	d503201f 	nop
   8412c:	d503201f 	nop
   84130:	d503201f 	nop
   84134:	d503201f 	nop
   84138:	d503201f 	nop
   8413c:	d503201f 	nop
   84140:	d503201f 	nop
   84144:	d503201f 	nop
   84148:	d503201f 	nop
   8414c:	d503201f 	nop
   84150:	d503201f 	nop
   84154:	d503201f 	nop
   84158:	d503201f 	nop
   8415c:	d503201f 	nop
   84160:	d503201f 	nop
   84164:	d503201f 	nop
   84168:	d503201f 	nop
   8416c:	d503201f 	nop
   84170:	d503201f 	nop
   84174:	d503201f 	nop
   84178:	d503201f 	nop
   8417c:	d503201f 	nop
   84180:	d503201f 	nop
   84184:	d503201f 	nop
   84188:	d503201f 	nop
   8418c:	d503201f 	nop
   84190:	d503201f 	nop
   84194:	d503201f 	nop
   84198:	d503201f 	nop
   8419c:	d503201f 	nop
   841a0:	d503201f 	nop
   841a4:	d503201f 	nop
   841a8:	d503201f 	nop
   841ac:	d503201f 	nop
   841b0:	d503201f 	nop
   841b4:	d503201f 	nop
   841b8:	d503201f 	nop
   841bc:	d503201f 	nop
   841c0:	d503201f 	nop
   841c4:	d503201f 	nop
   841c8:	d503201f 	nop
   841cc:	d503201f 	nop
   841d0:	d503201f 	nop
   841d4:	d503201f 	nop
   841d8:	d503201f 	nop
   841dc:	d503201f 	nop
   841e0:	d503201f 	nop
   841e4:	d503201f 	nop
   841e8:	d503201f 	nop
   841ec:	d503201f 	nop
   841f0:	d503201f 	nop
   841f4:	d503201f 	nop
   841f8:	d503201f 	nop
   841fc:	d503201f 	nop
   84200:	d503201f 	nop
   84204:	d503201f 	nop
   84208:	d503201f 	nop
   8420c:	d503201f 	nop
   84210:	d503201f 	nop
   84214:	d503201f 	nop
   84218:	d503201f 	nop
   8421c:	d503201f 	nop
   84220:	d503201f 	nop
   84224:	d503201f 	nop
   84228:	d503201f 	nop
   8422c:	d503201f 	nop
   84230:	d503201f 	nop
   84234:	d503201f 	nop
   84238:	d503201f 	nop
   8423c:	d503201f 	nop
   84240:	d503201f 	nop
   84244:	d503201f 	nop
   84248:	d503201f 	nop
   8424c:	d503201f 	nop
   84250:	d503201f 	nop
   84254:	d503201f 	nop
   84258:	d503201f 	nop
   8425c:	d503201f 	nop
   84260:	d503201f 	nop
   84264:	d503201f 	nop
   84268:	d503201f 	nop
   8426c:	d503201f 	nop
   84270:	d503201f 	nop
   84274:	d503201f 	nop
   84278:	d503201f 	nop
   8427c:	d503201f 	nop
   84280:	d503201f 	nop
   84284:	d503201f 	nop
   84288:	d503201f 	nop
   8428c:	d503201f 	nop
   84290:	d503201f 	nop
   84294:	d503201f 	nop
   84298:	d503201f 	nop
   8429c:	d503201f 	nop
   842a0:	d503201f 	nop
   842a4:	d503201f 	nop
   842a8:	d503201f 	nop
   842ac:	d503201f 	nop
   842b0:	d503201f 	nop
   842b4:	d503201f 	nop
   842b8:	d503201f 	nop
   842bc:	d503201f 	nop
   842c0:	d503201f 	nop
   842c4:	d503201f 	nop
   842c8:	d503201f 	nop
   842cc:	d503201f 	nop
   842d0:	d503201f 	nop
   842d4:	d503201f 	nop
   842d8:	d503201f 	nop
   842dc:	d503201f 	nop
   842e0:	d503201f 	nop
   842e4:	d503201f 	nop
   842e8:	d503201f 	nop
   842ec:	d503201f 	nop
   842f0:	d503201f 	nop
   842f4:	d503201f 	nop
   842f8:	d503201f 	nop
   842fc:	d503201f 	nop
   84300:	d503201f 	nop
   84304:	d503201f 	nop
   84308:	d503201f 	nop
   8430c:	d503201f 	nop
   84310:	d503201f 	nop
   84314:	d503201f 	nop
   84318:	d503201f 	nop
   8431c:	d503201f 	nop
   84320:	d503201f 	nop
   84324:	d503201f 	nop
   84328:	d503201f 	nop
   8432c:	d503201f 	nop
   84330:	d503201f 	nop
   84334:	d503201f 	nop
   84338:	d503201f 	nop
   8433c:	d503201f 	nop
   84340:	d503201f 	nop
   84344:	d503201f 	nop
   84348:	d503201f 	nop
   8434c:	d503201f 	nop
   84350:	d503201f 	nop
   84354:	d503201f 	nop
   84358:	d503201f 	nop
   8435c:	d503201f 	nop
   84360:	d503201f 	nop
   84364:	d503201f 	nop
   84368:	d503201f 	nop
   8436c:	d503201f 	nop
   84370:	d503201f 	nop
   84374:	d503201f 	nop
   84378:	d503201f 	nop
   8437c:	d503201f 	nop
   84380:	d503201f 	nop
   84384:	d503201f 	nop
   84388:	d503201f 	nop
   8438c:	d503201f 	nop
   84390:	d503201f 	nop
   84394:	d503201f 	nop
   84398:	d503201f 	nop
   8439c:	d503201f 	nop
   843a0:	d503201f 	nop
   843a4:	d503201f 	nop
   843a8:	d503201f 	nop
   843ac:	d503201f 	nop
   843b0:	d503201f 	nop
   843b4:	d503201f 	nop
   843b8:	d503201f 	nop
   843bc:	d503201f 	nop
   843c0:	d503201f 	nop
   843c4:	d503201f 	nop
   843c8:	d503201f 	nop
   843cc:	d503201f 	nop
   843d0:	d503201f 	nop
   843d4:	d503201f 	nop
   843d8:	d503201f 	nop
   843dc:	d503201f 	nop
   843e0:	d503201f 	nop
   843e4:	d503201f 	nop
   843e8:	d503201f 	nop
   843ec:	d503201f 	nop
   843f0:	d503201f 	nop
   843f4:	d503201f 	nop
   843f8:	d503201f 	nop
   843fc:	d503201f 	nop
   84400:	d503201f 	nop
   84404:	d503201f 	nop
   84408:	d503201f 	nop
   8440c:	d503201f 	nop
   84410:	d503201f 	nop
   84414:	d503201f 	nop
   84418:	d503201f 	nop
   8441c:	d503201f 	nop
   84420:	d503201f 	nop
   84424:	d503201f 	nop
   84428:	d503201f 	nop
   8442c:	d503201f 	nop
   84430:	d503201f 	nop
   84434:	d503201f 	nop
   84438:	d503201f 	nop
   8443c:	d503201f 	nop
   84440:	d503201f 	nop
   84444:	d503201f 	nop
   84448:	d503201f 	nop
   8444c:	d503201f 	nop
   84450:	d503201f 	nop
   84454:	d503201f 	nop
   84458:	d503201f 	nop
   8445c:	d503201f 	nop
   84460:	d503201f 	nop
   84464:	d503201f 	nop
   84468:	d503201f 	nop
   8446c:	d503201f 	nop
   84470:	d503201f 	nop
   84474:	d503201f 	nop
   84478:	d503201f 	nop
   8447c:	d503201f 	nop
   84480:	d503201f 	nop
   84484:	d503201f 	nop
   84488:	d503201f 	nop
   8448c:	d503201f 	nop
   84490:	d503201f 	nop
   84494:	d503201f 	nop
   84498:	d503201f 	nop
   8449c:	d503201f 	nop
   844a0:	d503201f 	nop
   844a4:	d503201f 	nop
   844a8:	d503201f 	nop
   844ac:	d503201f 	nop
   844b0:	d503201f 	nop
   844b4:	d503201f 	nop
   844b8:	d503201f 	nop
   844bc:	d503201f 	nop
   844c0:	d503201f 	nop
   844c4:	d503201f 	nop
   844c8:	d503201f 	nop
   844cc:	d503201f 	nop
   844d0:	d503201f 	nop
   844d4:	d503201f 	nop
   844d8:	d503201f 	nop
   844dc:	d503201f 	nop
   844e0:	d503201f 	nop
   844e4:	d503201f 	nop
   844e8:	d503201f 	nop
   844ec:	d503201f 	nop
   844f0:	d503201f 	nop
   844f4:	d503201f 	nop
   844f8:	d503201f 	nop
   844fc:	d503201f 	nop
   84500:	d503201f 	nop
   84504:	d503201f 	nop
   84508:	d503201f 	nop
   8450c:	d503201f 	nop
   84510:	d503201f 	nop
   84514:	d503201f 	nop
   84518:	d503201f 	nop
   8451c:	d503201f 	nop
   84520:	d503201f 	nop
   84524:	d503201f 	nop
   84528:	d503201f 	nop
   8452c:	d503201f 	nop
   84530:	d503201f 	nop
   84534:	d503201f 	nop
   84538:	d503201f 	nop
   8453c:	d503201f 	nop
   84540:	d503201f 	nop
   84544:	d503201f 	nop
   84548:	d503201f 	nop
   8454c:	d503201f 	nop
   84550:	d503201f 	nop
   84554:	d503201f 	nop
   84558:	d503201f 	nop
   8455c:	d503201f 	nop
   84560:	d503201f 	nop
   84564:	d503201f 	nop
   84568:	d503201f 	nop
   8456c:	d503201f 	nop
   84570:	d503201f 	nop
   84574:	d503201f 	nop
   84578:	d503201f 	nop
   8457c:	d503201f 	nop
   84580:	d503201f 	nop
   84584:	d503201f 	nop
   84588:	d503201f 	nop
   8458c:	d503201f 	nop
   84590:	d503201f 	nop
   84594:	d503201f 	nop
   84598:	d503201f 	nop
   8459c:	d503201f 	nop
   845a0:	d503201f 	nop
   845a4:	d503201f 	nop
   845a8:	d503201f 	nop
   845ac:	d503201f 	nop
   845b0:	d503201f 	nop
   845b4:	d503201f 	nop
   845b8:	d503201f 	nop
   845bc:	d503201f 	nop
   845c0:	d503201f 	nop
   845c4:	d503201f 	nop
   845c8:	d503201f 	nop
   845cc:	d503201f 	nop
   845d0:	d503201f 	nop
   845d4:	d503201f 	nop
   845d8:	d503201f 	nop
   845dc:	d503201f 	nop
   845e0:	d503201f 	nop
   845e4:	d503201f 	nop
   845e8:	d503201f 	nop
   845ec:	d503201f 	nop
   845f0:	d503201f 	nop
   845f4:	d503201f 	nop
   845f8:	d503201f 	nop
   845fc:	d503201f 	nop
   84600:	d503201f 	nop
   84604:	d503201f 	nop
   84608:	d503201f 	nop
   8460c:	d503201f 	nop
   84610:	d503201f 	nop
   84614:	d503201f 	nop
   84618:	d503201f 	nop
   8461c:	d503201f 	nop
   84620:	d503201f 	nop
   84624:	d503201f 	nop
   84628:	d503201f 	nop
   8462c:	d503201f 	nop
   84630:	d503201f 	nop
   84634:	d503201f 	nop
   84638:	d503201f 	nop
   8463c:	d503201f 	nop
   84640:	d503201f 	nop
   84644:	d503201f 	nop
   84648:	d503201f 	nop
   8464c:	d503201f 	nop
   84650:	d503201f 	nop
   84654:	d503201f 	nop
   84658:	d503201f 	nop
   8465c:	d503201f 	nop
   84660:	d503201f 	nop
   84664:	d503201f 	nop
   84668:	d503201f 	nop
   8466c:	d503201f 	nop
   84670:	d503201f 	nop
   84674:	d503201f 	nop
   84678:	d503201f 	nop
   8467c:	d503201f 	nop
   84680:	d503201f 	nop
   84684:	d503201f 	nop
   84688:	d503201f 	nop
   8468c:	d503201f 	nop
   84690:	d503201f 	nop
   84694:	d503201f 	nop
   84698:	d503201f 	nop
   8469c:	d503201f 	nop
   846a0:	d503201f 	nop
   846a4:	d503201f 	nop
   846a8:	d503201f 	nop
   846ac:	d503201f 	nop
   846b0:	d503201f 	nop
   846b4:	d503201f 	nop
   846b8:	d503201f 	nop
   846bc:	d503201f 	nop
   846c0:	d503201f 	nop
   846c4:	d503201f 	nop
   846c8:	d503201f 	nop
   846cc:	d503201f 	nop
   846d0:	d503201f 	nop
   846d4:	d503201f 	nop
   846d8:	d503201f 	nop
   846dc:	d503201f 	nop
   846e0:	d503201f 	nop
   846e4:	d503201f 	nop
   846e8:	d503201f 	nop
   846ec:	d503201f 	nop
   846f0:	d503201f 	nop
   846f4:	d503201f 	nop
   846f8:	d503201f 	nop
   846fc:	d503201f 	nop
   84700:	d503201f 	nop
   84704:	d503201f 	nop
   84708:	d503201f 	nop
   8470c:	d503201f 	nop
   84710:	d503201f 	nop
   84714:	d503201f 	nop
   84718:	d503201f 	nop
   8471c:	d503201f 	nop
   84720:	d503201f 	nop
   84724:	d503201f 	nop
   84728:	d503201f 	nop
   8472c:	d503201f 	nop
   84730:	d503201f 	nop
   84734:	d503201f 	nop
   84738:	d503201f 	nop
   8473c:	d503201f 	nop
   84740:	d503201f 	nop
   84744:	d503201f 	nop
   84748:	d503201f 	nop
   8474c:	d503201f 	nop
   84750:	d503201f 	nop
   84754:	d503201f 	nop
   84758:	d503201f 	nop
   8475c:	d503201f 	nop
   84760:	d503201f 	nop
   84764:	d503201f 	nop
   84768:	d503201f 	nop
   8476c:	d503201f 	nop
   84770:	d503201f 	nop
   84774:	d503201f 	nop
   84778:	d503201f 	nop
   8477c:	d503201f 	nop
   84780:	d503201f 	nop
   84784:	d503201f 	nop
   84788:	d503201f 	nop
   8478c:	d503201f 	nop
   84790:	d503201f 	nop
   84794:	d503201f 	nop
   84798:	d503201f 	nop
   8479c:	d503201f 	nop
   847a0:	d503201f 	nop
   847a4:	d503201f 	nop
   847a8:	d503201f 	nop
   847ac:	d503201f 	nop
   847b0:	d503201f 	nop
   847b4:	d503201f 	nop
   847b8:	d503201f 	nop
   847bc:	d503201f 	nop
   847c0:	d503201f 	nop
   847c4:	d503201f 	nop
   847c8:	d503201f 	nop
   847cc:	d503201f 	nop
   847d0:	d503201f 	nop
   847d4:	d503201f 	nop
   847d8:	d503201f 	nop
   847dc:	d503201f 	nop
   847e0:	d503201f 	nop
   847e4:	d503201f 	nop
   847e8:	d503201f 	nop
   847ec:	d503201f 	nop
   847f0:	d503201f 	nop
   847f4:	d503201f 	nop
   847f8:	d503201f 	nop
   847fc:	d503201f 	nop

0000000000084800 <__ExceptionVectorTable>:
   84800:	d10043ff 	sub	sp, sp, #0x10
   84804:	a9007be0 	stp	x0, x30, [sp]
   84808:	d2800020 	mov	x0, #0x1                   	// #1
   8480c:	97fffdfd 	bl	84000 <__exception_trampoline>
   84810:	a9407be0 	ldp	x0, x30, [sp]
   84814:	910043ff 	add	sp, sp, #0x10
   84818:	d69f03e0 	eret
   8481c:	d503201f 	nop
   84820:	d503201f 	nop
   84824:	d503201f 	nop
   84828:	d503201f 	nop
   8482c:	d503201f 	nop
   84830:	d503201f 	nop
   84834:	d503201f 	nop
   84838:	d503201f 	nop
   8483c:	d503201f 	nop
   84840:	d503201f 	nop
   84844:	d503201f 	nop
   84848:	d503201f 	nop
   8484c:	d503201f 	nop
   84850:	d503201f 	nop
   84854:	d503201f 	nop
   84858:	d503201f 	nop
   8485c:	d503201f 	nop
   84860:	d503201f 	nop
   84864:	d503201f 	nop
   84868:	d503201f 	nop
   8486c:	d503201f 	nop
   84870:	d503201f 	nop
   84874:	d503201f 	nop
   84878:	d503201f 	nop
   8487c:	d503201f 	nop

0000000000084880 <.EXC_CURREL_SP0_Irq>:
   84880:	d10043ff 	sub	sp, sp, #0x10
   84884:	a9007be0 	stp	x0, x30, [sp]
   84888:	d2800040 	mov	x0, #0x2                   	// #2
   8488c:	97fffddd 	bl	84000 <__exception_trampoline>
   84890:	a9407be0 	ldp	x0, x30, [sp]
   84894:	910043ff 	add	sp, sp, #0x10
   84898:	d69f03e0 	eret
   8489c:	d503201f 	nop
   848a0:	d503201f 	nop
   848a4:	d503201f 	nop
   848a8:	d503201f 	nop
   848ac:	d503201f 	nop
   848b0:	d503201f 	nop
   848b4:	d503201f 	nop
   848b8:	d503201f 	nop
   848bc:	d503201f 	nop
   848c0:	d503201f 	nop
   848c4:	d503201f 	nop
   848c8:	d503201f 	nop
   848cc:	d503201f 	nop
   848d0:	d503201f 	nop
   848d4:	d503201f 	nop
   848d8:	d503201f 	nop
   848dc:	d503201f 	nop
   848e0:	d503201f 	nop
   848e4:	d503201f 	nop
   848e8:	d503201f 	nop
   848ec:	d503201f 	nop
   848f0:	d503201f 	nop
   848f4:	d503201f 	nop
   848f8:	d503201f 	nop
   848fc:	d503201f 	nop

0000000000084900 <.EXC_CURREL_SP0_Fiq>:
   84900:	d10043ff 	sub	sp, sp, #0x10
   84904:	a9007be0 	stp	x0, x30, [sp]
   84908:	d2800060 	mov	x0, #0x3                   	// #3
   8490c:	97fffdbd 	bl	84000 <__exception_trampoline>
   84910:	a9407be0 	ldp	x0, x30, [sp]
   84914:	910043ff 	add	sp, sp, #0x10
   84918:	d69f03e0 	eret
   8491c:	d503201f 	nop
   84920:	d503201f 	nop
   84924:	d503201f 	nop
   84928:	d503201f 	nop
   8492c:	d503201f 	nop
   84930:	d503201f 	nop
   84934:	d503201f 	nop
   84938:	d503201f 	nop
   8493c:	d503201f 	nop
   84940:	d503201f 	nop
   84944:	d503201f 	nop
   84948:	d503201f 	nop
   8494c:	d503201f 	nop
   84950:	d503201f 	nop
   84954:	d503201f 	nop
   84958:	d503201f 	nop
   8495c:	d503201f 	nop
   84960:	d503201f 	nop
   84964:	d503201f 	nop
   84968:	d503201f 	nop
   8496c:	d503201f 	nop
   84970:	d503201f 	nop
   84974:	d503201f 	nop
   84978:	d503201f 	nop
   8497c:	d503201f 	nop

0000000000084980 <.EXC_CURREL_SP0_SErr>:
   84980:	d10043ff 	sub	sp, sp, #0x10
   84984:	a9007be0 	stp	x0, x30, [sp]
   84988:	d2800080 	mov	x0, #0x4                   	// #4
   8498c:	97fffd9d 	bl	84000 <__exception_trampoline>
   84990:	a9407be0 	ldp	x0, x30, [sp]
   84994:	910043ff 	add	sp, sp, #0x10
   84998:	d69f03e0 	eret
   8499c:	d503201f 	nop
   849a0:	d503201f 	nop
   849a4:	d503201f 	nop
   849a8:	d503201f 	nop
   849ac:	d503201f 	nop
   849b0:	d503201f 	nop
   849b4:	d503201f 	nop
   849b8:	d503201f 	nop
   849bc:	d503201f 	nop
   849c0:	d503201f 	nop
   849c4:	d503201f 	nop
   849c8:	d503201f 	nop
   849cc:	d503201f 	nop
   849d0:	d503201f 	nop
   849d4:	d503201f 	nop
   849d8:	d503201f 	nop
   849dc:	d503201f 	nop
   849e0:	d503201f 	nop
   849e4:	d503201f 	nop
   849e8:	d503201f 	nop
   849ec:	d503201f 	nop
   849f0:	d503201f 	nop
   849f4:	d503201f 	nop
   849f8:	d503201f 	nop
   849fc:	d503201f 	nop

0000000000084a00 <.EXC_CURREL_SPX_Sync>:
   84a00:	d10043ff 	sub	sp, sp, #0x10
   84a04:	a9007be0 	stp	x0, x30, [sp]
   84a08:	d2800220 	mov	x0, #0x11                  	// #17
   84a0c:	97fffd7d 	bl	84000 <__exception_trampoline>
   84a10:	a9407be0 	ldp	x0, x30, [sp]
   84a14:	910043ff 	add	sp, sp, #0x10
   84a18:	d69f03e0 	eret
   84a1c:	d503201f 	nop
   84a20:	d503201f 	nop
   84a24:	d503201f 	nop
   84a28:	d503201f 	nop
   84a2c:	d503201f 	nop
   84a30:	d503201f 	nop
   84a34:	d503201f 	nop
   84a38:	d503201f 	nop
   84a3c:	d503201f 	nop
   84a40:	d503201f 	nop
   84a44:	d503201f 	nop
   84a48:	d503201f 	nop
   84a4c:	d503201f 	nop
   84a50:	d503201f 	nop
   84a54:	d503201f 	nop
   84a58:	d503201f 	nop
   84a5c:	d503201f 	nop
   84a60:	d503201f 	nop
   84a64:	d503201f 	nop
   84a68:	d503201f 	nop
   84a6c:	d503201f 	nop
   84a70:	d503201f 	nop
   84a74:	d503201f 	nop
   84a78:	d503201f 	nop
   84a7c:	d503201f 	nop

0000000000084a80 <.EXC_CURREL_SPX_Irq>:
   84a80:	d10043ff 	sub	sp, sp, #0x10
   84a84:	a9007be0 	stp	x0, x30, [sp]
   84a88:	d2800240 	mov	x0, #0x12                  	// #18
   84a8c:	97fffd5d 	bl	84000 <__exception_trampoline>
   84a90:	a9407be0 	ldp	x0, x30, [sp]
   84a94:	910043ff 	add	sp, sp, #0x10
   84a98:	d69f03e0 	eret
   84a9c:	d503201f 	nop
   84aa0:	d503201f 	nop
   84aa4:	d503201f 	nop
   84aa8:	d503201f 	nop
   84aac:	d503201f 	nop
   84ab0:	d503201f 	nop
   84ab4:	d503201f 	nop
   84ab8:	d503201f 	nop
   84abc:	d503201f 	nop
   84ac0:	d503201f 	nop
   84ac4:	d503201f 	nop
   84ac8:	d503201f 	nop
   84acc:	d503201f 	nop
   84ad0:	d503201f 	nop
   84ad4:	d503201f 	nop
   84ad8:	d503201f 	nop
   84adc:	d503201f 	nop
   84ae0:	d503201f 	nop
   84ae4:	d503201f 	nop
   84ae8:	d503201f 	nop
   84aec:	d503201f 	nop
   84af0:	d503201f 	nop
   84af4:	d503201f 	nop
   84af8:	d503201f 	nop
   84afc:	d503201f 	nop

0000000000084b00 <.EXC_CURREL_SPX_Fiq>:
   84b00:	d10043ff 	sub	sp, sp, #0x10
   84b04:	a9007be0 	stp	x0, x30, [sp]
   84b08:	d2800260 	mov	x0, #0x13                  	// #19
   84b0c:	97fffd3d 	bl	84000 <__exception_trampoline>
   84b10:	a9407be0 	ldp	x0, x30, [sp]
   84b14:	910043ff 	add	sp, sp, #0x10
   84b18:	d69f03e0 	eret
   84b1c:	d503201f 	nop
   84b20:	d503201f 	nop
   84b24:	d503201f 	nop
   84b28:	d503201f 	nop
   84b2c:	d503201f 	nop
   84b30:	d503201f 	nop
   84b34:	d503201f 	nop
   84b38:	d503201f 	nop
   84b3c:	d503201f 	nop
   84b40:	d503201f 	nop
   84b44:	d503201f 	nop
   84b48:	d503201f 	nop
   84b4c:	d503201f 	nop
   84b50:	d503201f 	nop
   84b54:	d503201f 	nop
   84b58:	d503201f 	nop
   84b5c:	d503201f 	nop
   84b60:	d503201f 	nop
   84b64:	d503201f 	nop
   84b68:	d503201f 	nop
   84b6c:	d503201f 	nop
   84b70:	d503201f 	nop
   84b74:	d503201f 	nop
   84b78:	d503201f 	nop
   84b7c:	d503201f 	nop

0000000000084b80 <.EXC_CURREL_SPX_SErr>:
   84b80:	d10043ff 	sub	sp, sp, #0x10
   84b84:	a9007be0 	stp	x0, x30, [sp]
   84b88:	d2800280 	mov	x0, #0x14                  	// #20
   84b8c:	97fffd1d 	bl	84000 <__exception_trampoline>
   84b90:	a9407be0 	ldp	x0, x30, [sp]
   84b94:	910043ff 	add	sp, sp, #0x10
   84b98:	d69f03e0 	eret
   84b9c:	d503201f 	nop
   84ba0:	d503201f 	nop
   84ba4:	d503201f 	nop
   84ba8:	d503201f 	nop
   84bac:	d503201f 	nop
   84bb0:	d503201f 	nop
   84bb4:	d503201f 	nop
   84bb8:	d503201f 	nop
   84bbc:	d503201f 	nop
   84bc0:	d503201f 	nop
   84bc4:	d503201f 	nop
   84bc8:	d503201f 	nop
   84bcc:	d503201f 	nop
   84bd0:	d503201f 	nop
   84bd4:	d503201f 	nop
   84bd8:	d503201f 	nop
   84bdc:	d503201f 	nop
   84be0:	d503201f 	nop
   84be4:	d503201f 	nop
   84be8:	d503201f 	nop
   84bec:	d503201f 	nop
   84bf0:	d503201f 	nop
   84bf4:	d503201f 	nop
   84bf8:	d503201f 	nop
   84bfc:	d503201f 	nop

0000000000084c00 <.EXC_LOWEREL64_SPX_Sync>:
   84c00:	d10043ff 	sub	sp, sp, #0x10
   84c04:	a9007be0 	stp	x0, x30, [sp]
   84c08:	d2800420 	mov	x0, #0x21                  	// #33
   84c0c:	97fffcfd 	bl	84000 <__exception_trampoline>
   84c10:	a9407be0 	ldp	x0, x30, [sp]
   84c14:	910043ff 	add	sp, sp, #0x10
   84c18:	d69f03e0 	eret
   84c1c:	d503201f 	nop
   84c20:	d503201f 	nop
   84c24:	d503201f 	nop
   84c28:	d503201f 	nop
   84c2c:	d503201f 	nop
   84c30:	d503201f 	nop
   84c34:	d503201f 	nop
   84c38:	d503201f 	nop
   84c3c:	d503201f 	nop
   84c40:	d503201f 	nop
   84c44:	d503201f 	nop
   84c48:	d503201f 	nop
   84c4c:	d503201f 	nop
   84c50:	d503201f 	nop
   84c54:	d503201f 	nop
   84c58:	d503201f 	nop
   84c5c:	d503201f 	nop
   84c60:	d503201f 	nop
   84c64:	d503201f 	nop
   84c68:	d503201f 	nop
   84c6c:	d503201f 	nop
   84c70:	d503201f 	nop
   84c74:	d503201f 	nop
   84c78:	d503201f 	nop
   84c7c:	d503201f 	nop

0000000000084c80 <.EXC_LOWEREL64_SPX_Irq>:
   84c80:	d10043ff 	sub	sp, sp, #0x10
   84c84:	a9007be0 	stp	x0, x30, [sp]
   84c88:	d2800440 	mov	x0, #0x22                  	// #34
   84c8c:	97fffcdd 	bl	84000 <__exception_trampoline>
   84c90:	a9407be0 	ldp	x0, x30, [sp]
   84c94:	910043ff 	add	sp, sp, #0x10
   84c98:	d69f03e0 	eret
   84c9c:	d503201f 	nop
   84ca0:	d503201f 	nop
   84ca4:	d503201f 	nop
   84ca8:	d503201f 	nop
   84cac:	d503201f 	nop
   84cb0:	d503201f 	nop
   84cb4:	d503201f 	nop
   84cb8:	d503201f 	nop
   84cbc:	d503201f 	nop
   84cc0:	d503201f 	nop
   84cc4:	d503201f 	nop
   84cc8:	d503201f 	nop
   84ccc:	d503201f 	nop
   84cd0:	d503201f 	nop
   84cd4:	d503201f 	nop
   84cd8:	d503201f 	nop
   84cdc:	d503201f 	nop
   84ce0:	d503201f 	nop
   84ce4:	d503201f 	nop
   84ce8:	d503201f 	nop
   84cec:	d503201f 	nop
   84cf0:	d503201f 	nop
   84cf4:	d503201f 	nop
   84cf8:	d503201f 	nop
   84cfc:	d503201f 	nop

0000000000084d00 <.EXC_LOWEREL64_SPX_Fiq>:
   84d00:	d10043ff 	sub	sp, sp, #0x10
   84d04:	a9007be0 	stp	x0, x30, [sp]
   84d08:	d2800460 	mov	x0, #0x23                  	// #35
   84d0c:	97fffcbd 	bl	84000 <__exception_trampoline>
   84d10:	a9407be0 	ldp	x0, x30, [sp]
   84d14:	910043ff 	add	sp, sp, #0x10
   84d18:	d69f03e0 	eret
   84d1c:	d503201f 	nop
   84d20:	d503201f 	nop
   84d24:	d503201f 	nop
   84d28:	d503201f 	nop
   84d2c:	d503201f 	nop
   84d30:	d503201f 	nop
   84d34:	d503201f 	nop
   84d38:	d503201f 	nop
   84d3c:	d503201f 	nop
   84d40:	d503201f 	nop
   84d44:	d503201f 	nop
   84d48:	d503201f 	nop
   84d4c:	d503201f 	nop
   84d50:	d503201f 	nop
   84d54:	d503201f 	nop
   84d58:	d503201f 	nop
   84d5c:	d503201f 	nop
   84d60:	d503201f 	nop
   84d64:	d503201f 	nop
   84d68:	d503201f 	nop
   84d6c:	d503201f 	nop
   84d70:	d503201f 	nop
   84d74:	d503201f 	nop
   84d78:	d503201f 	nop
   84d7c:	d503201f 	nop

0000000000084d80 <.EXC_LOWEREL64_SPX_SErr>:
   84d80:	d10043ff 	sub	sp, sp, #0x10
   84d84:	a9007be0 	stp	x0, x30, [sp]
   84d88:	d2800480 	mov	x0, #0x24                  	// #36
   84d8c:	97fffc9d 	bl	84000 <__exception_trampoline>
   84d90:	a9407be0 	ldp	x0, x30, [sp]
   84d94:	910043ff 	add	sp, sp, #0x10
   84d98:	d69f03e0 	eret
   84d9c:	d503201f 	nop
   84da0:	d503201f 	nop
   84da4:	d503201f 	nop
   84da8:	d503201f 	nop
   84dac:	d503201f 	nop
   84db0:	d503201f 	nop
   84db4:	d503201f 	nop
   84db8:	d503201f 	nop
   84dbc:	d503201f 	nop
   84dc0:	d503201f 	nop
   84dc4:	d503201f 	nop
   84dc8:	d503201f 	nop
   84dcc:	d503201f 	nop
   84dd0:	d503201f 	nop
   84dd4:	d503201f 	nop
   84dd8:	d503201f 	nop
   84ddc:	d503201f 	nop
   84de0:	d503201f 	nop
   84de4:	d503201f 	nop
   84de8:	d503201f 	nop
   84dec:	d503201f 	nop
   84df0:	d503201f 	nop
   84df4:	d503201f 	nop
   84df8:	d503201f 	nop
   84dfc:	d503201f 	nop

0000000000084e00 <.EXC_LOWEREL32_SPX_Sync>:
   84e00:	d10043ff 	sub	sp, sp, #0x10
   84e04:	a9007be0 	stp	x0, x30, [sp]
   84e08:	d2800620 	mov	x0, #0x31                  	// #49
   84e0c:	97fffc7d 	bl	84000 <__exception_trampoline>
   84e10:	a9407be0 	ldp	x0, x30, [sp]
   84e14:	910043ff 	add	sp, sp, #0x10
   84e18:	d69f03e0 	eret
   84e1c:	d503201f 	nop
   84e20:	d503201f 	nop
   84e24:	d503201f 	nop
   84e28:	d503201f 	nop
   84e2c:	d503201f 	nop
   84e30:	d503201f 	nop
   84e34:	d503201f 	nop
   84e38:	d503201f 	nop
   84e3c:	d503201f 	nop
   84e40:	d503201f 	nop
   84e44:	d503201f 	nop
   84e48:	d503201f 	nop
   84e4c:	d503201f 	nop
   84e50:	d503201f 	nop
   84e54:	d503201f 	nop
   84e58:	d503201f 	nop
   84e5c:	d503201f 	nop
   84e60:	d503201f 	nop
   84e64:	d503201f 	nop
   84e68:	d503201f 	nop
   84e6c:	d503201f 	nop
   84e70:	d503201f 	nop
   84e74:	d503201f 	nop
   84e78:	d503201f 	nop
   84e7c:	d503201f 	nop

0000000000084e80 <.EXC_LOWEREL32_SPX_Irq>:
   84e80:	d10043ff 	sub	sp, sp, #0x10
   84e84:	a9007be0 	stp	x0, x30, [sp]
   84e88:	d2800640 	mov	x0, #0x32                  	// #50
   84e8c:	97fffc5d 	bl	84000 <__exception_trampoline>
   84e90:	a9407be0 	ldp	x0, x30, [sp]
   84e94:	910043ff 	add	sp, sp, #0x10
   84e98:	d69f03e0 	eret
   84e9c:	d503201f 	nop
   84ea0:	d503201f 	nop
   84ea4:	d503201f 	nop
   84ea8:	d503201f 	nop
   84eac:	d503201f 	nop
   84eb0:	d503201f 	nop
   84eb4:	d503201f 	nop
   84eb8:	d503201f 	nop
   84ebc:	d503201f 	nop
   84ec0:	d503201f 	nop
   84ec4:	d503201f 	nop
   84ec8:	d503201f 	nop
   84ecc:	d503201f 	nop
   84ed0:	d503201f 	nop
   84ed4:	d503201f 	nop
   84ed8:	d503201f 	nop
   84edc:	d503201f 	nop
   84ee0:	d503201f 	nop
   84ee4:	d503201f 	nop
   84ee8:	d503201f 	nop
   84eec:	d503201f 	nop
   84ef0:	d503201f 	nop
   84ef4:	d503201f 	nop
   84ef8:	d503201f 	nop
   84efc:	d503201f 	nop

0000000000084f00 <.EXC_LOWEREL32_SPX_Fiq>:
   84f00:	d10043ff 	sub	sp, sp, #0x10
   84f04:	a9007be0 	stp	x0, x30, [sp]
   84f08:	d2800660 	mov	x0, #0x33                  	// #51
   84f0c:	97fffc3d 	bl	84000 <__exception_trampoline>
   84f10:	a9407be0 	ldp	x0, x30, [sp]
   84f14:	910043ff 	add	sp, sp, #0x10
   84f18:	d69f03e0 	eret
   84f1c:	d503201f 	nop
   84f20:	d503201f 	nop
   84f24:	d503201f 	nop
   84f28:	d503201f 	nop
   84f2c:	d503201f 	nop
   84f30:	d503201f 	nop
   84f34:	d503201f 	nop
   84f38:	d503201f 	nop
   84f3c:	d503201f 	nop
   84f40:	d503201f 	nop
   84f44:	d503201f 	nop
   84f48:	d503201f 	nop
   84f4c:	d503201f 	nop
   84f50:	d503201f 	nop
   84f54:	d503201f 	nop
   84f58:	d503201f 	nop
   84f5c:	d503201f 	nop
   84f60:	d503201f 	nop
   84f64:	d503201f 	nop
   84f68:	d503201f 	nop
   84f6c:	d503201f 	nop
   84f70:	d503201f 	nop
   84f74:	d503201f 	nop
   84f78:	d503201f 	nop
   84f7c:	d503201f 	nop

0000000000084f80 <.EXC_LOWEREL32_SPX_SErr>:
   84f80:	d10043ff 	sub	sp, sp, #0x10
   84f84:	a9007be0 	stp	x0, x30, [sp]
   84f88:	d2800680 	mov	x0, #0x34                  	// #52
   84f8c:	97fffc1d 	bl	84000 <__exception_trampoline>
   84f90:	a9407be0 	ldp	x0, x30, [sp]
   84f94:	910043ff 	add	sp, sp, #0x10
   84f98:	d69f03e0 	eret
   84f9c:	d503201f 	nop
   84fa0:	d503201f 	nop
   84fa4:	d503201f 	nop
   84fa8:	d503201f 	nop
   84fac:	d503201f 	nop
   84fb0:	d503201f 	nop
   84fb4:	d503201f 	nop
   84fb8:	d503201f 	nop
   84fbc:	d503201f 	nop
   84fc0:	d503201f 	nop
   84fc4:	d503201f 	nop
   84fc8:	d503201f 	nop
   84fcc:	d503201f 	nop
   84fd0:	d503201f 	nop
   84fd4:	d503201f 	nop
   84fd8:	d503201f 	nop
   84fdc:	d503201f 	nop
   84fe0:	d503201f 	nop
   84fe4:	d503201f 	nop
   84fe8:	d503201f 	nop
   84fec:	d503201f 	nop
   84ff0:	d503201f 	nop
   84ff4:	d503201f 	nop
   84ff8:	d503201f 	nop
   84ffc:	d503201f 	nop

0000000000085000 <__exception_handler_default>:
   85000:	d10283ff 	sub	sp, sp, #0xa0
   85004:	51000808 	sub	w8, w0, #0x2
   85008:	f90043fe 	str	x30, [sp, #128]
   8500c:	7100451f 	cmp	w8, #0x11
   85010:	a9094ff4 	stp	x20, x19, [sp, #144]
   85014:	a9000fe2 	stp	x2, x3, [sp]
   85018:	f9000be4 	str	x4, [sp, #16]
   8501c:	54000168 	b.hi	85048 <__exception_handler_default+0x48>  // b.pmore
   85020:	b0000009 	adrp	x9, 86000 <_ZN4core7unicode12unicode_data15grapheme_extend7OFFSETS17h43cbc87acfaf4d34E.llvm.111400220230659385+0x98>
   85024:	912ab929 	add	x9, x9, #0xaae
   85028:	1000008a 	adr	x10, 85038 <__exception_handler_default+0x38>
   8502c:	3868692b 	ldrb	w11, [x9, x8]
   85030:	8b0b094a 	add	x10, x10, x11, lsl #2
   85034:	d61f0140 	br	x10
   85038:	a9494ff4 	ldp	x20, x19, [sp, #144]
   8503c:	f94043fe 	ldr	x30, [sp, #128]
   85040:	910283ff 	add	sp, sp, #0xa0
   85044:	17ffed2f 	b	80500 <__isr_default>
   85048:	b0000008 	adrp	x8, 86000 <_ZN4core7unicode12unicode_data15grapheme_extend7OFFSETS17h43cbc87acfaf4d34E.llvm.111400220230659385+0x98>
   8504c:	f9477508 	ldr	x8, [x8, #3816]
   85050:	f9400108 	ldr	x8, [x8]
   85054:	b40001c8 	cbz	x8, 8508c <__exception_handler_default+0x8c>
   85058:	f0000008 	adrp	x8, 88000 <anon.b2eb45f66a0b759930b184b68fba7a80.61.llvm.111400220230659385+0x178>
   8505c:	52800029 	mov	w9, #0x1                   	// #1
   85060:	91056108 	add	x8, x8, #0x158
   85064:	f0000002 	adrp	x2, 88000 <anon.b2eb45f66a0b759930b184b68fba7a80.61.llvm.111400220230659385+0x178>
   85068:	9105a042 	add	x2, x2, #0x168
   8506c:	910143e0 	add	x0, sp, #0x50
   85070:	52800021 	mov	w1, #0x1                   	// #1
   85074:	a9067fff 	stp	xzr, xzr, [sp, #96]
   85078:	a90527e8 	stp	x8, x9, [sp, #80]
   8507c:	b0000008 	adrp	x8, 86000 <_ZN4core7unicode12unicode_data15grapheme_extend7OFFSETS17h43cbc87acfaf4d34E.llvm.111400220230659385+0x98>
   85080:	912ba108 	add	x8, x8, #0xae8
   85084:	a9077fe8 	stp	x8, xzr, [sp, #112]
   85088:	97fff502 	bl	82490 <_ZN3log17__private_api_log17haa499543e16634a1E>
   8508c:	a9494ff4 	ldp	x20, x19, [sp, #144]
   85090:	f94043fe 	ldr	x30, [sp, #128]
   85094:	910283ff 	add	sp, sp, #0xa0
   85098:	d65f03c0 	ret
   8509c:	b0000014 	adrp	x20, 86000 <_ZN4core7unicode12unicode_data15grapheme_extend7OFFSETS17h43cbc87acfaf4d34E.llvm.111400220230659385+0x98>
   850a0:	aa0103f3 	mov	x19, x1
   850a4:	f9477694 	ldr	x20, [x20, #3816]
   850a8:	f9400288 	ldr	x8, [x20]
   850ac:	b40002e8 	cbz	x8, 85108 <__exception_handler_default+0x108>
   850b0:	b0000009 	adrp	x9, 86000 <_ZN4core7unicode12unicode_data15grapheme_extend7OFFSETS17h43cbc87acfaf4d34E.llvm.111400220230659385+0x98>
   850b4:	910043e8 	add	x8, sp, #0x10
   850b8:	910023ea 	add	x10, sp, #0x8
   850bc:	f0000002 	adrp	x2, 88000 <anon.b2eb45f66a0b759930b184b68fba7a80.61.llvm.111400220230659385+0x178>
   850c0:	91074042 	add	x2, x2, #0x1d0
   850c4:	910063e0 	add	x0, sp, #0x18
   850c8:	f9477d29 	ldr	x9, [x9, #3832]
   850cc:	52800021 	mov	w1, #0x1                   	// #1
   850d0:	a90527e8 	stp	x8, x9, [sp, #80]
   850d4:	910003e8 	mov	x8, sp
   850d8:	a90627ea 	stp	x10, x9, [sp, #96]
   850dc:	f000000a 	adrp	x10, 88000 <anon.b2eb45f66a0b759930b184b68fba7a80.61.llvm.111400220230659385+0x178>
   850e0:	9106814a 	add	x10, x10, #0x1a0
   850e4:	a90727e8 	stp	x8, x9, [sp, #112]
   850e8:	52800068 	mov	w8, #0x3                   	// #3
   850ec:	b0000009 	adrp	x9, 86000 <_ZN4core7unicode12unicode_data15grapheme_extend7OFFSETS17h43cbc87acfaf4d34E.llvm.111400220230659385+0x98>
   850f0:	912e2129 	add	x9, x9, #0xb88
   850f4:	a901a3ea 	stp	x10, x8, [sp, #24]
   850f8:	910143ea 	add	x10, sp, #0x50
   850fc:	a902a3e9 	stp	x9, x8, [sp, #40]
   85100:	a903a3ea 	stp	x10, x8, [sp, #56]
   85104:	97fff4e3 	bl	82490 <_ZN3log17__private_api_log17haa499543e16634a1E>
   85108:	d35afe69 	lsr	x9, x19, #26
   8510c:	f90027e9 	str	x9, [sp, #72]
   85110:	f9400288 	ldr	x8, [x20]
   85114:	f100051f 	cmp	x8, #0x1
   85118:	54000289 	b.ls	85168 <__exception_handler_default+0x168>  // b.plast
   8511c:	b0000009 	adrp	x9, 86000 <_ZN4core7unicode12unicode_data15grapheme_extend7OFFSETS17h43cbc87acfaf4d34E.llvm.111400220230659385+0x98>
   85120:	910123e8 	add	x8, sp, #0x48
   85124:	f000000a 	adrp	x10, 88000 <anon.b2eb45f66a0b759930b184b68fba7a80.61.llvm.111400220230659385+0x178>
   85128:	b000000b 	adrp	x11, 86000 <_ZN4core7unicode12unicode_data15grapheme_extend7OFFSETS17h43cbc87acfaf4d34E.llvm.111400220230659385+0x98>
   8512c:	f0000002 	adrp	x2, 88000 <anon.b2eb45f66a0b759930b184b68fba7a80.61.llvm.111400220230659385+0x178>
   85130:	9108214a 	add	x10, x10, #0x208
   85134:	f9478129 	ldr	x9, [x9, #3840]
   85138:	9130c16b 	add	x11, x11, #0xc30
   8513c:	5280002c 	mov	w12, #0x1                   	// #1
   85140:	91086042 	add	x2, x2, #0x218
   85144:	910143e0 	add	x0, sp, #0x50
   85148:	52800041 	mov	w1, #0x2                   	// #2
   8514c:	a901a7e8 	stp	x8, x9, [sp, #24]
   85150:	910063e8 	add	x8, sp, #0x18
   85154:	a90533ea 	stp	x10, x12, [sp, #80]
   85158:	a90633eb 	stp	x11, x12, [sp, #96]
   8515c:	a90733e8 	stp	x8, x12, [sp, #112]
   85160:	97fff4cc 	bl	82490 <_ZN3log17__private_api_log17haa499543e16634a1E>
   85164:	f94027e9 	ldr	x9, [sp, #72]
   85168:	92406268 	and	x8, x19, #0x1ffffff
   8516c:	f100f13f 	cmp	x9, #0x3c
   85170:	f90047e8 	str	x8, [sp, #136]
   85174:	54000241 	b.ne	851bc <__exception_handler_default+0x1bc>  // b.any
   85178:	f9400288 	ldr	x8, [x20]
   8517c:	f1000d1f 	cmp	x8, #0x3
   85180:	540001c3 	b.cc	851b8 <__exception_handler_default+0x1b8>  // b.lo, b.ul, b.last
   85184:	f0000008 	adrp	x8, 88000 <anon.b2eb45f66a0b759930b184b68fba7a80.61.llvm.111400220230659385+0x178>
   85188:	52800029 	mov	w9, #0x1                   	// #1
   8518c:	9109a108 	add	x8, x8, #0x268
   85190:	f0000002 	adrp	x2, 88000 <anon.b2eb45f66a0b759930b184b68fba7a80.61.llvm.111400220230659385+0x178>
   85194:	9109e042 	add	x2, x2, #0x278
   85198:	910143e0 	add	x0, sp, #0x50
   8519c:	52800061 	mov	w1, #0x3                   	// #3
   851a0:	a9067fff 	stp	xzr, xzr, [sp, #96]
   851a4:	a90527e8 	stp	x8, x9, [sp, #80]
   851a8:	b0000008 	adrp	x8, 86000 <_ZN4core7unicode12unicode_data15grapheme_extend7OFFSETS17h43cbc87acfaf4d34E.llvm.111400220230659385+0x98>
   851ac:	912ba108 	add	x8, x8, #0xae8
   851b0:	a9077fe8 	stp	x8, xzr, [sp, #112]
   851b4:	97fff4b7 	bl	82490 <_ZN3log17__private_api_log17haa499543e16634a1E>
   851b8:	14000000 	b	851b8 <__exception_handler_default+0x1b8>
   851bc:	f100953f 	cmp	x9, #0x25
   851c0:	54000f08 	b.hi	853a0 <__exception_handler_default+0x3a0>  // b.pmore
   851c4:	b000000a 	adrp	x10, 86000 <_ZN4core7unicode12unicode_data15grapheme_extend7OFFSETS17h43cbc87acfaf4d34E.llvm.111400220230659385+0x98>
   851c8:	912b014a 	add	x10, x10, #0xac0
   851cc:	1000008b 	adr	x11, 851dc <__exception_handler_default+0x1dc>
   851d0:	3869694c 	ldrb	w12, [x10, x9]
   851d4:	8b0c096b 	add	x11, x11, x12, lsl #2
   851d8:	d61f0160 	br	x11
   851dc:	b0000000 	adrp	x0, 86000 <_ZN4core7unicode12unicode_data15grapheme_extend7OFFSETS17h43cbc87acfaf4d34E.llvm.111400220230659385+0x98>
   851e0:	f0000002 	adrp	x2, 88000 <anon.b2eb45f66a0b759930b184b68fba7a80.61.llvm.111400220230659385+0x178>
   851e4:	9139f000 	add	x0, x0, #0xe7c
   851e8:	91188042 	add	x2, x2, #0x620
   851ec:	528001c1 	mov	w1, #0xe                   	// #14
   851f0:	97fff430 	bl	822b0 <_ZN4core9panicking5panic17h1276bf0d71dbfb98E>
   851f4:	d4200020 	brk	#0x1
   851f8:	b0000000 	adrp	x0, 86000 <_ZN4core7unicode12unicode_data15grapheme_extend7OFFSETS17h43cbc87acfaf4d34E.llvm.111400220230659385+0x98>
   851fc:	f0000002 	adrp	x2, 88000 <anon.b2eb45f66a0b759930b184b68fba7a80.61.llvm.111400220230659385+0x178>
   85200:	91390800 	add	x0, x0, #0xe42
   85204:	528003a1 	mov	w1, #0x1d                  	// #29
   85208:	9117c042 	add	x2, x2, #0x5f0
   8520c:	97fff429 	bl	822b0 <_ZN4core9panicking5panic17h1276bf0d71dbfb98E>
   85210:	d4200020 	brk	#0x1
   85214:	b0000000 	adrp	x0, 86000 <_ZN4core7unicode12unicode_data15grapheme_extend7OFFSETS17h43cbc87acfaf4d34E.llvm.111400220230659385+0x98>
   85218:	f0000002 	adrp	x2, 88000 <anon.b2eb45f66a0b759930b184b68fba7a80.61.llvm.111400220230659385+0x178>
   8521c:	9137ac00 	add	x0, x0, #0xdeb
   85220:	528003a1 	mov	w1, #0x1d                  	// #29
   85224:	9116a042 	add	x2, x2, #0x5a8
   85228:	97fff422 	bl	822b0 <_ZN4core9panicking5panic17h1276bf0d71dbfb98E>
   8522c:	d4200020 	brk	#0x1
   85230:	b0000000 	adrp	x0, 86000 <_ZN4core7unicode12unicode_data15grapheme_extend7OFFSETS17h43cbc87acfaf4d34E.llvm.111400220230659385+0x98>
   85234:	f0000002 	adrp	x2, 88000 <anon.b2eb45f66a0b759930b184b68fba7a80.61.llvm.111400220230659385+0x178>
   85238:	9136f400 	add	x0, x0, #0xdbd
   8523c:	52800221 	mov	w1, #0x11                  	// #17
   85240:	9115e042 	add	x2, x2, #0x578
   85244:	97fff41b 	bl	822b0 <_ZN4core9panicking5panic17h1276bf0d71dbfb98E>
   85248:	d4200020 	brk	#0x1
   8524c:	b0000000 	adrp	x0, 86000 <_ZN4core7unicode12unicode_data15grapheme_extend7OFFSETS17h43cbc87acfaf4d34E.llvm.111400220230659385+0x98>
   85250:	f0000002 	adrp	x2, 88000 <anon.b2eb45f66a0b759930b184b68fba7a80.61.llvm.111400220230659385+0x178>
   85254:	91397c00 	add	x0, x0, #0xe5f
   85258:	528003a1 	mov	w1, #0x1d                  	// #29
   8525c:	91182042 	add	x2, x2, #0x608
   85260:	97fff414 	bl	822b0 <_ZN4core9panicking5panic17h1276bf0d71dbfb98E>
   85264:	d4200020 	brk	#0x1
   85268:	b0000000 	adrp	x0, 86000 <_ZN4core7unicode12unicode_data15grapheme_extend7OFFSETS17h43cbc87acfaf4d34E.llvm.111400220230659385+0x98>
   8526c:	f0000002 	adrp	x2, 88000 <anon.b2eb45f66a0b759930b184b68fba7a80.61.llvm.111400220230659385+0x178>
   85270:	91389400 	add	x0, x0, #0xe25
   85274:	528003a1 	mov	w1, #0x1d                  	// #29
   85278:	91176042 	add	x2, x2, #0x5d8
   8527c:	97fff40d 	bl	822b0 <_ZN4core9panicking5panic17h1276bf0d71dbfb98E>
   85280:	d4200020 	brk	#0x1
   85284:	b0000000 	adrp	x0, 86000 <_ZN4core7unicode12unicode_data15grapheme_extend7OFFSETS17h43cbc87acfaf4d34E.llvm.111400220230659385+0x98>
   85288:	f0000002 	adrp	x2, 88000 <anon.b2eb45f66a0b759930b184b68fba7a80.61.llvm.111400220230659385+0x178>
   8528c:	91382000 	add	x0, x0, #0xe08
   85290:	528003a1 	mov	w1, #0x1d                  	// #29
   85294:	91170042 	add	x2, x2, #0x5c0
   85298:	97fff406 	bl	822b0 <_ZN4core9panicking5panic17h1276bf0d71dbfb98E>
   8529c:	d4200020 	brk	#0x1
   852a0:	b0000000 	adrp	x0, 86000 <_ZN4core7unicode12unicode_data15grapheme_extend7OFFSETS17h43cbc87acfaf4d34E.llvm.111400220230659385+0x98>
   852a4:	f0000002 	adrp	x2, 88000 <anon.b2eb45f66a0b759930b184b68fba7a80.61.llvm.111400220230659385+0x178>
   852a8:	91373800 	add	x0, x0, #0xdce
   852ac:	528003a1 	mov	w1, #0x1d                  	// #29
   852b0:	91164042 	add	x2, x2, #0x590
   852b4:	97fff3ff 	bl	822b0 <_ZN4core9panicking5panic17h1276bf0d71dbfb98E>
   852b8:	d4200020 	brk	#0x1
   852bc:	b0000000 	adrp	x0, 86000 <_ZN4core7unicode12unicode_data15grapheme_extend7OFFSETS17h43cbc87acfaf4d34E.llvm.111400220230659385+0x98>
   852c0:	f0000002 	adrp	x2, 88000 <anon.b2eb45f66a0b759930b184b68fba7a80.61.llvm.111400220230659385+0x178>
   852c4:	9136a800 	add	x0, x0, #0xdaa
   852c8:	52800261 	mov	w1, #0x13                  	// #19
   852cc:	91158042 	add	x2, x2, #0x560
   852d0:	97fff3f8 	bl	822b0 <_ZN4core9panicking5panic17h1276bf0d71dbfb98E>
   852d4:	d4200020 	brk	#0x1
   852d8:	f9400289 	ldr	x9, [x20]
   852dc:	b4000289 	cbz	x9, 8532c <__exception_handler_default+0x32c>
   852e0:	b0000009 	adrp	x9, 86000 <_ZN4core7unicode12unicode_data15grapheme_extend7OFFSETS17h43cbc87acfaf4d34E.llvm.111400220230659385+0x98>
   852e4:	910223e8 	add	x8, sp, #0x88
   852e8:	f000000a 	adrp	x10, 88000 <anon.b2eb45f66a0b759930b184b68fba7a80.61.llvm.111400220230659385+0x178>
   852ec:	b000000b 	adrp	x11, 86000 <_ZN4core7unicode12unicode_data15grapheme_extend7OFFSETS17h43cbc87acfaf4d34E.llvm.111400220230659385+0x98>
   852f0:	f0000002 	adrp	x2, 88000 <anon.b2eb45f66a0b759930b184b68fba7a80.61.llvm.111400220230659385+0x178>
   852f4:	910ac14a 	add	x10, x10, #0x2b0
   852f8:	f9478129 	ldr	x9, [x9, #3840]
   852fc:	9130c16b 	add	x11, x11, #0xc30
   85300:	5280002c 	mov	w12, #0x1                   	// #1
   85304:	910b0042 	add	x2, x2, #0x2c0
   85308:	910143e0 	add	x0, sp, #0x50
   8530c:	52800021 	mov	w1, #0x1                   	// #1
   85310:	a901a7e8 	stp	x8, x9, [sp, #24]
   85314:	910063e8 	add	x8, sp, #0x18
   85318:	a90533ea 	stp	x10, x12, [sp, #80]
   8531c:	a90633eb 	stp	x11, x12, [sp, #96]
   85320:	a90733e8 	stp	x8, x12, [sp, #112]
   85324:	97fff45b 	bl	82490 <_ZN3log17__private_api_log17haa499543e16634a1E>
   85328:	f94047e8 	ldr	x8, [sp, #136]
   8532c:	36400248 	tbz	w8, #8, 85374 <__exception_handler_default+0x374>
   85330:	f9400289 	ldr	x9, [x20]
   85334:	f100113f 	cmp	x9, #0x4
   85338:	540001e3 	b.cc	85374 <__exception_handler_default+0x374>  // b.lo, b.ul, b.last
   8533c:	f0000008 	adrp	x8, 88000 <anon.b2eb45f66a0b759930b184b68fba7a80.61.llvm.111400220230659385+0x178>
   85340:	52800029 	mov	w9, #0x1                   	// #1
   85344:	910be108 	add	x8, x8, #0x2f8
   85348:	f0000002 	adrp	x2, 88000 <anon.b2eb45f66a0b759930b184b68fba7a80.61.llvm.111400220230659385+0x178>
   8534c:	910c2042 	add	x2, x2, #0x308
   85350:	910143e0 	add	x0, sp, #0x50
   85354:	52800081 	mov	w1, #0x4                   	// #4
   85358:	a9067fff 	stp	xzr, xzr, [sp, #96]
   8535c:	a90527e8 	stp	x8, x9, [sp, #80]
   85360:	b0000008 	adrp	x8, 86000 <_ZN4core7unicode12unicode_data15grapheme_extend7OFFSETS17h43cbc87acfaf4d34E.llvm.111400220230659385+0x98>
   85364:	912ba108 	add	x8, x8, #0xae8
   85368:	a9077fe8 	stp	x8, xzr, [sp, #112]
   8536c:	97fff449 	bl	82490 <_ZN3log17__private_api_log17haa499543e16634a1E>
   85370:	f94047e8 	ldr	x8, [sp, #136]
   85374:	f9400289 	ldr	x9, [x20]
   85378:	f100113f 	cmp	x9, #0x4
   8537c:	37300208 	tbnz	w8, #6, 853bc <__exception_handler_default+0x3bc>
   85380:	540003a3 	b.cc	853f4 <__exception_handler_default+0x3f4>  // b.lo, b.ul, b.last
   85384:	f0000008 	adrp	x8, 88000 <anon.b2eb45f66a0b759930b184b68fba7a80.61.llvm.111400220230659385+0x178>
   85388:	52800029 	mov	w9, #0x1                   	// #1
   8538c:	910e2108 	add	x8, x8, #0x388
   85390:	f0000002 	adrp	x2, 88000 <anon.b2eb45f66a0b759930b184b68fba7a80.61.llvm.111400220230659385+0x178>
   85394:	a9067fff 	stp	xzr, xzr, [sp, #96]
   85398:	910e6042 	add	x2, x2, #0x398
   8539c:	1400000f 	b	853d8 <__exception_handler_default+0x3d8>
   853a0:	b0000000 	adrp	x0, 86000 <_ZN4core7unicode12unicode_data15grapheme_extend7OFFSETS17h43cbc87acfaf4d34E.llvm.111400220230659385+0x98>
   853a4:	f0000002 	adrp	x2, 88000 <anon.b2eb45f66a0b759930b184b68fba7a80.61.llvm.111400220230659385+0x178>
   853a8:	9131a000 	add	x0, x0, #0xc68
   853ac:	91094042 	add	x2, x2, #0x250
   853b0:	52800301 	mov	w1, #0x18                  	// #24
   853b4:	97fff3bf 	bl	822b0 <_ZN4core9panicking5panic17h1276bf0d71dbfb98E>
   853b8:	d4200020 	brk	#0x1
   853bc:	540001c3 	b.cc	853f4 <__exception_handler_default+0x3f4>  // b.lo, b.ul, b.last
   853c0:	f0000008 	adrp	x8, 88000 <anon.b2eb45f66a0b759930b184b68fba7a80.61.llvm.111400220230659385+0x178>
   853c4:	52800029 	mov	w9, #0x1                   	// #1
   853c8:	910d0108 	add	x8, x8, #0x340
   853cc:	f0000002 	adrp	x2, 88000 <anon.b2eb45f66a0b759930b184b68fba7a80.61.llvm.111400220230659385+0x178>
   853d0:	910d4042 	add	x2, x2, #0x350
   853d4:	a9067fff 	stp	xzr, xzr, [sp, #96]
   853d8:	a90527e8 	stp	x8, x9, [sp, #80]
   853dc:	b0000008 	adrp	x8, 86000 <_ZN4core7unicode12unicode_data15grapheme_extend7OFFSETS17h43cbc87acfaf4d34E.llvm.111400220230659385+0x98>
   853e0:	912ba108 	add	x8, x8, #0xae8
   853e4:	a9077fe8 	stp	x8, xzr, [sp, #112]
   853e8:	910143e0 	add	x0, sp, #0x50
   853ec:	52800081 	mov	w1, #0x4                   	// #4
   853f0:	97fff428 	bl	82490 <_ZN3log17__private_api_log17haa499543e16634a1E>
   853f4:	f94047e8 	ldr	x8, [sp, #136]
   853f8:	92401509 	and	x9, x8, #0x3f
   853fc:	f100113f 	cmp	x9, #0x4
   85400:	54000241 	b.ne	85448 <__exception_handler_default+0x448>  // b.any
   85404:	f9400289 	ldr	x9, [x20]
   85408:	f100113f 	cmp	x9, #0x4
   8540c:	540001e3 	b.cc	85448 <__exception_handler_default+0x448>  // b.lo, b.ul, b.last
   85410:	f0000008 	adrp	x8, 88000 <anon.b2eb45f66a0b759930b184b68fba7a80.61.llvm.111400220230659385+0x178>
   85414:	52800029 	mov	w9, #0x1                   	// #1
   85418:	910f4108 	add	x8, x8, #0x3d0
   8541c:	f0000002 	adrp	x2, 88000 <anon.b2eb45f66a0b759930b184b68fba7a80.61.llvm.111400220230659385+0x178>
   85420:	910f8042 	add	x2, x2, #0x3e0
   85424:	910143e0 	add	x0, sp, #0x50
   85428:	52800081 	mov	w1, #0x4                   	// #4
   8542c:	a9067fff 	stp	xzr, xzr, [sp, #96]
   85430:	a90527e8 	stp	x8, x9, [sp, #80]
   85434:	b0000008 	adrp	x8, 86000 <_ZN4core7unicode12unicode_data15grapheme_extend7OFFSETS17h43cbc87acfaf4d34E.llvm.111400220230659385+0x98>
   85438:	912ba108 	add	x8, x8, #0xae8
   8543c:	a9077fe8 	stp	x8, xzr, [sp, #112]
   85440:	97fff414 	bl	82490 <_ZN3log17__private_api_log17haa499543e16634a1E>
   85444:	f94047e8 	ldr	x8, [sp, #136]
   85448:	92401509 	and	x9, x8, #0x3f
   8544c:	f100153f 	cmp	x9, #0x5
   85450:	54000241 	b.ne	85498 <__exception_handler_default+0x498>  // b.any
   85454:	f9400289 	ldr	x9, [x20]
   85458:	f100113f 	cmp	x9, #0x4
   8545c:	540001e3 	b.cc	85498 <__exception_handler_default+0x498>  // b.lo, b.ul, b.last
   85460:	f0000008 	adrp	x8, 88000 <anon.b2eb45f66a0b759930b184b68fba7a80.61.llvm.111400220230659385+0x178>
   85464:	52800029 	mov	w9, #0x1                   	// #1
   85468:	91106108 	add	x8, x8, #0x418
   8546c:	f0000002 	adrp	x2, 88000 <anon.b2eb45f66a0b759930b184b68fba7a80.61.llvm.111400220230659385+0x178>
   85470:	9110a042 	add	x2, x2, #0x428
   85474:	910143e0 	add	x0, sp, #0x50
   85478:	52800081 	mov	w1, #0x4                   	// #4
   8547c:	a9067fff 	stp	xzr, xzr, [sp, #96]
   85480:	a90527e8 	stp	x8, x9, [sp, #80]
   85484:	b0000008 	adrp	x8, 86000 <_ZN4core7unicode12unicode_data15grapheme_extend7OFFSETS17h43cbc87acfaf4d34E.llvm.111400220230659385+0x98>
   85488:	912ba108 	add	x8, x8, #0xae8
   8548c:	a9077fe8 	stp	x8, xzr, [sp, #112]
   85490:	97fff400 	bl	82490 <_ZN3log17__private_api_log17haa499543e16634a1E>
   85494:	f94047e8 	ldr	x8, [sp, #136]
   85498:	92401509 	and	x9, x8, #0x3f
   8549c:	f100193f 	cmp	x9, #0x6
   854a0:	54000241 	b.ne	854e8 <__exception_handler_default+0x4e8>  // b.any
   854a4:	f9400289 	ldr	x9, [x20]
   854a8:	f100113f 	cmp	x9, #0x4
   854ac:	540001e3 	b.cc	854e8 <__exception_handler_default+0x4e8>  // b.lo, b.ul, b.last
   854b0:	f0000008 	adrp	x8, 88000 <anon.b2eb45f66a0b759930b184b68fba7a80.61.llvm.111400220230659385+0x178>
   854b4:	52800029 	mov	w9, #0x1                   	// #1
   854b8:	91118108 	add	x8, x8, #0x460
   854bc:	f0000002 	adrp	x2, 88000 <anon.b2eb45f66a0b759930b184b68fba7a80.61.llvm.111400220230659385+0x178>
   854c0:	9111c042 	add	x2, x2, #0x470
   854c4:	910143e0 	add	x0, sp, #0x50
   854c8:	52800081 	mov	w1, #0x4                   	// #4
   854cc:	a9067fff 	stp	xzr, xzr, [sp, #96]
   854d0:	a90527e8 	stp	x8, x9, [sp, #80]
   854d4:	b0000008 	adrp	x8, 86000 <_ZN4core7unicode12unicode_data15grapheme_extend7OFFSETS17h43cbc87acfaf4d34E.llvm.111400220230659385+0x98>
   854d8:	912ba108 	add	x8, x8, #0xae8
   854dc:	a9077fe8 	stp	x8, xzr, [sp, #112]
   854e0:	97fff3ec 	bl	82490 <_ZN3log17__private_api_log17haa499543e16634a1E>
   854e4:	f94047e8 	ldr	x8, [sp, #136]
   854e8:	92401509 	and	x9, x8, #0x3f
   854ec:	f1001d3f 	cmp	x9, #0x7
   854f0:	54000241 	b.ne	85538 <__exception_handler_default+0x538>  // b.any
   854f4:	f9400289 	ldr	x9, [x20]
   854f8:	f100113f 	cmp	x9, #0x4
   854fc:	540001e3 	b.cc	85538 <__exception_handler_default+0x538>  // b.lo, b.ul, b.last
   85500:	f0000008 	adrp	x8, 88000 <anon.b2eb45f66a0b759930b184b68fba7a80.61.llvm.111400220230659385+0x178>
   85504:	52800029 	mov	w9, #0x1                   	// #1
   85508:	9112a108 	add	x8, x8, #0x4a8
   8550c:	f0000002 	adrp	x2, 88000 <anon.b2eb45f66a0b759930b184b68fba7a80.61.llvm.111400220230659385+0x178>
   85510:	9112e042 	add	x2, x2, #0x4b8
   85514:	910143e0 	add	x0, sp, #0x50
   85518:	52800081 	mov	w1, #0x4                   	// #4
   8551c:	a9067fff 	stp	xzr, xzr, [sp, #96]
   85520:	a90527e8 	stp	x8, x9, [sp, #80]
   85524:	b0000008 	adrp	x8, 86000 <_ZN4core7unicode12unicode_data15grapheme_extend7OFFSETS17h43cbc87acfaf4d34E.llvm.111400220230659385+0x98>
   85528:	912ba108 	add	x8, x8, #0xae8
   8552c:	a9077fe8 	stp	x8, xzr, [sp, #112]
   85530:	97fff3d8 	bl	82490 <_ZN3log17__private_api_log17haa499543e16634a1E>
   85534:	f94047e8 	ldr	x8, [sp, #136]
   85538:	92401508 	and	x8, x8, #0x3f
   8553c:	f100851f 	cmp	x8, #0x21
   85540:	54000301 	b.ne	855a0 <__exception_handler_default+0x5a0>  // b.any
   85544:	f9400288 	ldr	x8, [x20]
   85548:	f100111f 	cmp	x8, #0x4
   8554c:	540002a3 	b.cc	855a0 <__exception_handler_default+0x5a0>  // b.lo, b.ul, b.last
   85550:	b0000009 	adrp	x9, 86000 <_ZN4core7unicode12unicode_data15grapheme_extend7OFFSETS17h43cbc87acfaf4d34E.llvm.111400220230659385+0x98>
   85554:	910023e8 	add	x8, sp, #0x8
   85558:	910043ea 	add	x10, sp, #0x10
   8555c:	f000000b 	adrp	x11, 88000 <anon.b2eb45f66a0b759930b184b68fba7a80.61.llvm.111400220230659385+0x178>
   85560:	f0000002 	adrp	x2, 88000 <anon.b2eb45f66a0b759930b184b68fba7a80.61.llvm.111400220230659385+0x178>
   85564:	9113c16b 	add	x11, x11, #0x4f0
   85568:	f9477d29 	ldr	x9, [x9, #3832]
   8556c:	91144042 	add	x2, x2, #0x510
   85570:	910143e0 	add	x0, sp, #0x50
   85574:	52800081 	mov	w1, #0x4                   	// #4
   85578:	a901a7e8 	stp	x8, x9, [sp, #24]
   8557c:	52800048 	mov	w8, #0x2                   	// #2
   85580:	a902a7ea 	stp	x10, x9, [sp, #40]
   85584:	b0000009 	adrp	x9, 86000 <_ZN4core7unicode12unicode_data15grapheme_extend7OFFSETS17h43cbc87acfaf4d34E.llvm.111400220230659385+0x98>
   85588:	9134a129 	add	x9, x9, #0xd28
   8558c:	910063ea 	add	x10, sp, #0x18
   85590:	a90523eb 	stp	x11, x8, [sp, #80]
   85594:	a90623e9 	stp	x9, x8, [sp, #96]
   85598:	a90723ea 	stp	x10, x8, [sp, #112]
   8559c:	97fff3bd 	bl	82490 <_ZN3log17__private_api_log17haa499543e16634a1E>
   855a0:	b0000000 	adrp	x0, 86000 <_ZN4core7unicode12unicode_data15grapheme_extend7OFFSETS17h43cbc87acfaf4d34E.llvm.111400220230659385+0x98>
   855a4:	f0000002 	adrp	x2, 88000 <anon.b2eb45f66a0b759930b184b68fba7a80.61.llvm.111400220230659385+0x178>
   855a8:	91366000 	add	x0, x0, #0xd98
   855ac:	52800241 	mov	w1, #0x12                  	// #18
   855b0:	91152042 	add	x2, x2, #0x548
   855b4:	97fff33f 	bl	822b0 <_ZN4core9panicking5panic17h1276bf0d71dbfb98E>
   855b8:	d4200020 	brk	#0x1
   855bc:	00000000 	.inst	0x00000000 ; undefined

00000000000855c0 <__rust_entry>:
   855c0:	a9bf4ffe 	stp	x30, x19, [sp, #-16]!
   855c4:	2a0003f3 	mov	w19, w0
   855c8:	9400001e 	bl	85640 <_ZN13ruspiro_cache6dcache17invalidate_dcache17hc0f88a752d47d574E>
   855cc:	2a1303e0 	mov	w0, w19
   855d0:	97ffeb34 	bl	802a0 <__kernel_startup>
   855d4:	2a1303e0 	mov	w0, w19
   855d8:	94000006 	bl	855f0 <_ZN12ruspiro_boot17kickoff_next_core17h76c83402c8092a69E>
   855dc:	2a1303e0 	mov	w0, w19
   855e0:	97ffeb38 	bl	802c0 <__kernel_run>
   855e4:	d4200020 	brk	#0x1
	...

00000000000855f0 <_ZN12ruspiro_boot17kickoff_next_core17h76c83402c8092a69E>:
   855f0:	340000e0 	cbz	w0, 8560c <_ZN12ruspiro_boot17kickoff_next_core17h76c83402c8092a69E+0x1c>
   855f4:	7100081f 	cmp	w0, #0x2
   855f8:	540000e0 	b.eq	85614 <_ZN12ruspiro_boot17kickoff_next_core17h76c83402c8092a69E+0x24>  // b.none
   855fc:	7100041f 	cmp	w0, #0x1
   85600:	540001c1 	b.ne	85638 <_ZN12ruspiro_boot17kickoff_next_core17h76c83402c8092a69E+0x48>  // b.any
   85604:	52801d08 	mov	w8, #0xe8                  	// #232
   85608:	14000004 	b	85618 <_ZN12ruspiro_boot17kickoff_next_core17h76c83402c8092a69E+0x28>
   8560c:	52801c08 	mov	w8, #0xe0                  	// #224
   85610:	14000002 	b	85618 <_ZN12ruspiro_boot17kickoff_next_core17h76c83402c8092a69E+0x28>
   85614:	52801e08 	mov	w8, #0xf0                  	// #240
   85618:	f81f0ffe 	str	x30, [sp, #-16]!
